
Project_4_Small_Cal.elf:     file format elf32-avr

Sections:
Idx Name          Size      VMA       LMA       File off  Algn
  0 .text         000041f2  00000000  00000000  00000074  2**1
                  CONTENTS, ALLOC, LOAD, READONLY, CODE
  1 .data         00000132  00800060  000041f2  00004266  2**0
                  CONTENTS, ALLOC, LOAD, DATA
  2 .stab         000006cc  00000000  00000000  00004398  2**2
                  CONTENTS, READONLY, DEBUGGING
  3 .stabstr      00000085  00000000  00000000  00004a64  2**0
                  CONTENTS, READONLY, DEBUGGING
  4 .debug_aranges 00000240  00000000  00000000  00004af0  2**3
                  CONTENTS, READONLY, DEBUGGING
  5 .debug_info   00002ceb  00000000  00000000  00004d30  2**0
                  CONTENTS, READONLY, DEBUGGING
  6 .debug_abbrev 00000d53  00000000  00000000  00007a1b  2**0
                  CONTENTS, READONLY, DEBUGGING
  7 .debug_line   000010b7  00000000  00000000  0000876e  2**0
                  CONTENTS, READONLY, DEBUGGING
  8 .debug_frame  000004d4  00000000  00000000  00009828  2**2
                  CONTENTS, READONLY, DEBUGGING
  9 .debug_str    00000563  00000000  00000000  00009cfc  2**0
                  CONTENTS, READONLY, DEBUGGING
 10 .debug_loc    00004f37  00000000  00000000  0000a25f  2**0
                  CONTENTS, READONLY, DEBUGGING
 11 .debug_ranges 00000060  00000000  00000000  0000f196  2**0
                  CONTENTS, READONLY, DEBUGGING

Disassembly of section .text:

00000000 <__vectors>:
       0:	0c 94 2a 00 	jmp	0x54	; 0x54 <__ctors_end>
       4:	0c 94 47 00 	jmp	0x8e	; 0x8e <__bad_interrupt>
       8:	0c 94 47 00 	jmp	0x8e	; 0x8e <__bad_interrupt>
       c:	0c 94 47 00 	jmp	0x8e	; 0x8e <__bad_interrupt>
      10:	0c 94 47 00 	jmp	0x8e	; 0x8e <__bad_interrupt>
      14:	0c 94 47 00 	jmp	0x8e	; 0x8e <__bad_interrupt>
      18:	0c 94 47 00 	jmp	0x8e	; 0x8e <__bad_interrupt>
      1c:	0c 94 47 00 	jmp	0x8e	; 0x8e <__bad_interrupt>
      20:	0c 94 47 00 	jmp	0x8e	; 0x8e <__bad_interrupt>
      24:	0c 94 47 00 	jmp	0x8e	; 0x8e <__bad_interrupt>
      28:	0c 94 47 00 	jmp	0x8e	; 0x8e <__bad_interrupt>
      2c:	0c 94 47 00 	jmp	0x8e	; 0x8e <__bad_interrupt>
      30:	0c 94 47 00 	jmp	0x8e	; 0x8e <__bad_interrupt>
      34:	0c 94 47 00 	jmp	0x8e	; 0x8e <__bad_interrupt>
      38:	0c 94 47 00 	jmp	0x8e	; 0x8e <__bad_interrupt>
      3c:	0c 94 47 00 	jmp	0x8e	; 0x8e <__bad_interrupt>
      40:	0c 94 47 00 	jmp	0x8e	; 0x8e <__bad_interrupt>
      44:	0c 94 47 00 	jmp	0x8e	; 0x8e <__bad_interrupt>
      48:	0c 94 47 00 	jmp	0x8e	; 0x8e <__bad_interrupt>
      4c:	0c 94 47 00 	jmp	0x8e	; 0x8e <__bad_interrupt>
      50:	0c 94 47 00 	jmp	0x8e	; 0x8e <__bad_interrupt>

00000054 <__ctors_end>:
      54:	11 24       	eor	r1, r1
      56:	1f be       	out	0x3f, r1	; 63
      58:	cf e5       	ldi	r28, 0x5F	; 95
      5a:	d8 e0       	ldi	r29, 0x08	; 8
      5c:	de bf       	out	0x3e, r29	; 62
      5e:	cd bf       	out	0x3d, r28	; 61

00000060 <__do_copy_data>:
      60:	11 e0       	ldi	r17, 0x01	; 1
      62:	a0 e6       	ldi	r26, 0x60	; 96
      64:	b0 e0       	ldi	r27, 0x00	; 0
      66:	e2 ef       	ldi	r30, 0xF2	; 242
      68:	f1 e4       	ldi	r31, 0x41	; 65
      6a:	02 c0       	rjmp	.+4      	; 0x70 <__do_copy_data+0x10>
      6c:	05 90       	lpm	r0, Z+
      6e:	0d 92       	st	X+, r0
      70:	a2 39       	cpi	r26, 0x92	; 146
      72:	b1 07       	cpc	r27, r17
      74:	d9 f7       	brne	.-10     	; 0x6c <__do_copy_data+0xc>

00000076 <__do_clear_bss>:
      76:	11 e0       	ldi	r17, 0x01	; 1
      78:	a2 e9       	ldi	r26, 0x92	; 146
      7a:	b1 e0       	ldi	r27, 0x01	; 1
      7c:	01 c0       	rjmp	.+2      	; 0x80 <.do_clear_bss_start>

0000007e <.do_clear_bss_loop>:
      7e:	1d 92       	st	X+, r1

00000080 <.do_clear_bss_start>:
      80:	a2 39       	cpi	r26, 0x92	; 146
      82:	b1 07       	cpc	r27, r17
      84:	e1 f7       	brne	.-8      	; 0x7e <.do_clear_bss_loop>
      86:	0e 94 9e 06 	call	0xd3c	; 0xd3c <main>
      8a:	0c 94 f7 20 	jmp	0x41ee	; 0x41ee <_exit>

0000008e <__bad_interrupt>:
      8e:	0c 94 00 00 	jmp	0	; 0x0 <__vectors>

00000092 <Buz_vInit>:
 */ 
#include "DIO.h"


void Buz_vInit(volatile unsigned char PORT,volatile unsigned char pin)
{
      92:	cf 93       	push	r28
      94:	df 93       	push	r29
      96:	00 d0       	rcall	.+0      	; 0x98 <Buz_vInit+0x6>
      98:	cd b7       	in	r28, 0x3d	; 61
      9a:	de b7       	in	r29, 0x3e	; 62
      9c:	89 83       	std	Y+1, r24	; 0x01
      9e:	6a 83       	std	Y+2, r22	; 0x02
	DIO_vSet_pin(PORT,pin,1);
      a0:	89 81       	ldd	r24, Y+1	; 0x01
      a2:	6a 81       	ldd	r22, Y+2	; 0x02
      a4:	41 e0       	ldi	r20, 0x01	; 1
      a6:	0e 94 28 02 	call	0x450	; 0x450 <DIO_vSet_pin>
}
      aa:	0f 90       	pop	r0
      ac:	0f 90       	pop	r0
      ae:	df 91       	pop	r29
      b0:	cf 91       	pop	r28
      b2:	08 95       	ret

000000b4 <Buz_vTurnON>:

void Buz_vTurnON(volatile unsigned char PORT,volatile unsigned char pin)
{
      b4:	cf 93       	push	r28
      b6:	df 93       	push	r29
      b8:	00 d0       	rcall	.+0      	; 0xba <Buz_vTurnON+0x6>
      ba:	cd b7       	in	r28, 0x3d	; 61
      bc:	de b7       	in	r29, 0x3e	; 62
      be:	89 83       	std	Y+1, r24	; 0x01
      c0:	6a 83       	std	Y+2, r22	; 0x02
	DIO_vWrite_pin(PORT,pin,1);
      c2:	89 81       	ldd	r24, Y+1	; 0x01
      c4:	6a 81       	ldd	r22, Y+2	; 0x02
      c6:	41 e0       	ldi	r20, 0x01	; 1
      c8:	0e 94 b9 02 	call	0x572	; 0x572 <DIO_vWrite_pin>
}
      cc:	0f 90       	pop	r0
      ce:	0f 90       	pop	r0
      d0:	df 91       	pop	r29
      d2:	cf 91       	pop	r28
      d4:	08 95       	ret

000000d6 <Buz_vTurnOFF>:

void Buz_vTurnOFF(volatile unsigned char PORT,volatile unsigned char pin)
{
      d6:	cf 93       	push	r28
      d8:	df 93       	push	r29
      da:	00 d0       	rcall	.+0      	; 0xdc <Buz_vTurnOFF+0x6>
      dc:	cd b7       	in	r28, 0x3d	; 61
      de:	de b7       	in	r29, 0x3e	; 62
      e0:	89 83       	std	Y+1, r24	; 0x01
      e2:	6a 83       	std	Y+2, r22	; 0x02
	DIO_vWrite_pin(PORT,pin,0);
      e4:	89 81       	ldd	r24, Y+1	; 0x01
      e6:	6a 81       	ldd	r22, Y+2	; 0x02
      e8:	40 e0       	ldi	r20, 0x00	; 0
      ea:	0e 94 b9 02 	call	0x572	; 0x572 <DIO_vWrite_pin>
}
      ee:	0f 90       	pop	r0
      f0:	0f 90       	pop	r0
      f2:	df 91       	pop	r29
      f4:	cf 91       	pop	r28
      f6:	08 95       	ret

000000f8 <Buz_vTog>:

void Buz_vTog(volatile unsigned char PORT,volatile unsigned char pin)
{
      f8:	cf 93       	push	r28
      fa:	df 93       	push	r29
      fc:	00 d0       	rcall	.+0      	; 0xfe <Buz_vTog+0x6>
      fe:	cd b7       	in	r28, 0x3d	; 61
     100:	de b7       	in	r29, 0x3e	; 62
     102:	89 83       	std	Y+1, r24	; 0x01
     104:	6a 83       	std	Y+2, r22	; 0x02
	DIO_vTog_pin(PORT,pin);
     106:	89 81       	ldd	r24, Y+1	; 0x01
     108:	6a 81       	ldd	r22, Y+2	; 0x02
     10a:	0e 94 af 03 	call	0x75e	; 0x75e <DIO_vTog_pin>
}
     10e:	0f 90       	pop	r0
     110:	0f 90       	pop	r0
     112:	df 91       	pop	r29
     114:	cf 91       	pop	r28
     116:	08 95       	ret

00000118 <Buz_uRead>:

unsigned char Buz_uRead(volatile unsigned char PORT,volatile unsigned char pin)
{
     118:	cf 93       	push	r28
     11a:	df 93       	push	r29
     11c:	00 d0       	rcall	.+0      	; 0x11e <Buz_uRead+0x6>
     11e:	cd b7       	in	r28, 0x3d	; 61
     120:	de b7       	in	r29, 0x3e	; 62
     122:	89 83       	std	Y+1, r24	; 0x01
     124:	6a 83       	std	Y+2, r22	; 0x02
	return DIO_uRead_pin(PORT,pin);
     126:	89 81       	ldd	r24, Y+1	; 0x01
     128:	6a 81       	ldd	r22, Y+2	; 0x02
     12a:	0e 94 4a 03 	call	0x694	; 0x694 <DIO_uRead_pin>
     12e:	0f 90       	pop	r0
     130:	0f 90       	pop	r0
     132:	df 91       	pop	r29
     134:	cf 91       	pop	r28
     136:	08 95       	ret

00000138 <Num_uCreate>:
 */ 

#include "avr/io.h"

long long Num_uCreate (unsigned char arr[],unsigned char counter)
{
     138:	2f 92       	push	r2
     13a:	3f 92       	push	r3
     13c:	4f 92       	push	r4
     13e:	5f 92       	push	r5
     140:	6f 92       	push	r6
     142:	7f 92       	push	r7
     144:	8f 92       	push	r8
     146:	9f 92       	push	r9
     148:	af 92       	push	r10
     14a:	bf 92       	push	r11
     14c:	cf 92       	push	r12
     14e:	df 92       	push	r13
     150:	ef 92       	push	r14
     152:	ff 92       	push	r15
     154:	0f 93       	push	r16
     156:	1f 93       	push	r17
     158:	cf 93       	push	r28
     15a:	df 93       	push	r29
     15c:	cd b7       	in	r28, 0x3d	; 61
     15e:	de b7       	in	r29, 0x3e	; 62
     160:	2c 97       	sbiw	r28, 0x0c	; 12
     162:	0f b6       	in	r0, 0x3f	; 63
     164:	f8 94       	cli
     166:	de bf       	out	0x3e, r29	; 62
     168:	0f be       	out	0x3f, r0	; 63
     16a:	cd bf       	out	0x3d, r28	; 61
     16c:	89 83       	std	Y+1, r24	; 0x01
     16e:	9a 83       	std	Y+2, r25	; 0x02
     170:	6b 87       	std	Y+11, r22	; 0x0b
	long long returned_valu=0,R=1;
	unsigned char i;
	for (i=1;(i<counter);i++)
     172:	62 30       	cpi	r22, 0x02	; 2
     174:	08 f4       	brcc	.+2      	; 0x178 <Num_uCreate+0x40>
     176:	86 c0       	rjmp	.+268    	; 0x284 <Num_uCreate+0x14c>
     178:	22 24       	eor	r2, r2
     17a:	23 94       	inc	r2

#include "avr/io.h"

long long Num_uCreate (unsigned char arr[],unsigned char counter)
{
	long long returned_valu=0,R=1;
     17c:	33 24       	eor	r3, r3
     17e:	33 94       	inc	r3
     180:	44 24       	eor	r4, r4
     182:	55 24       	eor	r5, r5
     184:	66 24       	eor	r6, r6
     186:	77 24       	eor	r7, r7
     188:	88 24       	eor	r8, r8
     18a:	99 24       	eor	r9, r9
     18c:	10 e0       	ldi	r17, 0x00	; 0
	unsigned char i;
	for (i=1;(i<counter);i++)
	{
		R=R*10;
     18e:	23 2d       	mov	r18, r3
     190:	36 2e       	mov	r3, r22
     192:	34 2d       	mov	r19, r4
     194:	45 2d       	mov	r20, r5
     196:	56 2d       	mov	r21, r6
     198:	67 2d       	mov	r22, r7
     19a:	78 2d       	mov	r23, r8
     19c:	89 2d       	mov	r24, r9
     19e:	92 2c       	mov	r9, r2
     1a0:	91 2f       	mov	r25, r17
     1a2:	01 e0       	ldi	r16, 0x01	; 1
     1a4:	0e 94 66 0c 	call	0x18cc	; 0x18cc <__ashldi3>
     1a8:	e2 2e       	mov	r14, r18
     1aa:	f3 2e       	mov	r15, r19
     1ac:	14 2f       	mov	r17, r20
     1ae:	d5 2e       	mov	r13, r21
     1b0:	c6 2e       	mov	r12, r22
     1b2:	b7 2e       	mov	r11, r23
     1b4:	a8 2e       	mov	r10, r24
     1b6:	29 2e       	mov	r2, r25
     1b8:	83 2e       	mov	r8, r19
     1ba:	74 2e       	mov	r7, r20
     1bc:	5b 83       	std	Y+3, r21	; 0x03
     1be:	66 2e       	mov	r6, r22
     1c0:	57 2e       	mov	r5, r23
     1c2:	48 2e       	mov	r4, r24
     1c4:	02 e0       	ldi	r16, 0x02	; 2
     1c6:	0e 94 66 0c 	call	0x18cc	; 0x18cc <__ashldi3>
     1ca:	2e 0d       	add	r18, r14
     1cc:	e1 e0       	ldi	r30, 0x01	; 1
     1ce:	2e 15       	cp	r18, r14
     1d0:	08 f0       	brcs	.+2      	; 0x1d4 <Num_uCreate+0x9c>
     1d2:	e0 e0       	ldi	r30, 0x00	; 0
     1d4:	f3 0e       	add	r15, r19
     1d6:	f1 e0       	ldi	r31, 0x01	; 1
     1d8:	f8 14       	cp	r15, r8
     1da:	08 f0       	brcs	.+2      	; 0x1de <Num_uCreate+0xa6>
     1dc:	f0 e0       	ldi	r31, 0x00	; 0
     1de:	3e 2f       	mov	r19, r30
     1e0:	3f 0d       	add	r19, r15
     1e2:	e1 e0       	ldi	r30, 0x01	; 1
     1e4:	3f 15       	cp	r19, r15
     1e6:	08 f0       	brcs	.+2      	; 0x1ea <Num_uCreate+0xb2>
     1e8:	e0 e0       	ldi	r30, 0x00	; 0
     1ea:	fe 2b       	or	r31, r30
     1ec:	14 0f       	add	r17, r20
     1ee:	e1 e0       	ldi	r30, 0x01	; 1
     1f0:	17 15       	cp	r17, r7
     1f2:	08 f0       	brcs	.+2      	; 0x1f6 <Num_uCreate+0xbe>
     1f4:	e0 e0       	ldi	r30, 0x00	; 0
     1f6:	4f 2f       	mov	r20, r31
     1f8:	41 0f       	add	r20, r17
     1fa:	f1 e0       	ldi	r31, 0x01	; 1
     1fc:	41 17       	cp	r20, r17
     1fe:	08 f0       	brcs	.+2      	; 0x202 <Num_uCreate+0xca>
     200:	f0 e0       	ldi	r31, 0x00	; 0
     202:	ef 2b       	or	r30, r31
     204:	d5 0e       	add	r13, r21
     206:	f1 e0       	ldi	r31, 0x01	; 1
     208:	5b 81       	ldd	r21, Y+3	; 0x03
     20a:	d5 16       	cp	r13, r21
     20c:	08 f0       	brcs	.+2      	; 0x210 <Num_uCreate+0xd8>
     20e:	f0 e0       	ldi	r31, 0x00	; 0
     210:	5e 2f       	mov	r21, r30
     212:	5d 0d       	add	r21, r13
     214:	e1 e0       	ldi	r30, 0x01	; 1
     216:	5d 15       	cp	r21, r13
     218:	08 f0       	brcs	.+2      	; 0x21c <Num_uCreate+0xe4>
     21a:	e0 e0       	ldi	r30, 0x00	; 0
     21c:	fe 2b       	or	r31, r30
     21e:	c6 0e       	add	r12, r22
     220:	e1 e0       	ldi	r30, 0x01	; 1
     222:	c6 14       	cp	r12, r6
     224:	08 f0       	brcs	.+2      	; 0x228 <Num_uCreate+0xf0>
     226:	e0 e0       	ldi	r30, 0x00	; 0
     228:	6f 2f       	mov	r22, r31
     22a:	6c 0d       	add	r22, r12
     22c:	f1 e0       	ldi	r31, 0x01	; 1
     22e:	6c 15       	cp	r22, r12
     230:	08 f0       	brcs	.+2      	; 0x234 <Num_uCreate+0xfc>
     232:	f0 e0       	ldi	r31, 0x00	; 0
     234:	ef 2b       	or	r30, r31
     236:	b7 0e       	add	r11, r23
     238:	f1 e0       	ldi	r31, 0x01	; 1
     23a:	b5 14       	cp	r11, r5
     23c:	08 f0       	brcs	.+2      	; 0x240 <Num_uCreate+0x108>
     23e:	f0 e0       	ldi	r31, 0x00	; 0
     240:	7e 2f       	mov	r23, r30
     242:	7b 0d       	add	r23, r11
     244:	e1 e0       	ldi	r30, 0x01	; 1
     246:	7b 15       	cp	r23, r11
     248:	08 f0       	brcs	.+2      	; 0x24c <Num_uCreate+0x114>
     24a:	e0 e0       	ldi	r30, 0x00	; 0
     24c:	fe 2b       	or	r31, r30
     24e:	a8 0e       	add	r10, r24
     250:	e1 e0       	ldi	r30, 0x01	; 1
     252:	a4 14       	cp	r10, r4
     254:	08 f0       	brcs	.+2      	; 0x258 <Num_uCreate+0x120>
     256:	e0 e0       	ldi	r30, 0x00	; 0
     258:	8f 2f       	mov	r24, r31
     25a:	8a 0d       	add	r24, r10
     25c:	f1 e0       	ldi	r31, 0x01	; 1
     25e:	8a 15       	cp	r24, r10
     260:	08 f0       	brcs	.+2      	; 0x264 <Num_uCreate+0x12c>
     262:	f0 e0       	ldi	r31, 0x00	; 0
     264:	ef 2b       	or	r30, r31
     266:	92 0d       	add	r25, r2
     268:	9e 0f       	add	r25, r30

long long Num_uCreate (unsigned char arr[],unsigned char counter)
{
	long long returned_valu=0,R=1;
	unsigned char i;
	for (i=1;(i<counter);i++)
     26a:	93 94       	inc	r9
     26c:	93 14       	cp	r9, r3
     26e:	09 f0       	breq	.+2      	; 0x272 <Num_uCreate+0x13a>
     270:	98 cf       	rjmp	.-208    	; 0x1a2 <Num_uCreate+0x6a>
     272:	32 2e       	mov	r3, r18
     274:	43 2e       	mov	r4, r19
     276:	54 2e       	mov	r5, r20
     278:	65 2e       	mov	r6, r21
     27a:	76 2e       	mov	r7, r22
     27c:	87 2e       	mov	r8, r23
     27e:	98 2e       	mov	r9, r24
     280:	19 2f       	mov	r17, r25
     282:	09 c0       	rjmp	.+18     	; 0x296 <Num_uCreate+0x15e>

#include "avr/io.h"

long long Num_uCreate (unsigned char arr[],unsigned char counter)
{
	long long returned_valu=0,R=1;
     284:	33 24       	eor	r3, r3
     286:	33 94       	inc	r3
     288:	44 24       	eor	r4, r4
     28a:	55 24       	eor	r5, r5
     28c:	66 24       	eor	r6, r6
     28e:	77 24       	eor	r7, r7
     290:	88 24       	eor	r8, r8
     292:	99 24       	eor	r9, r9
     294:	10 e0       	ldi	r17, 0x00	; 0
	unsigned char i;
	for (i=1;(i<counter);i++)
	{
		R=R*10;
	}
	for (i=0;i<counter;i++,R/=10)
     296:	8b 85       	ldd	r24, Y+11	; 0x0b
     298:	88 23       	and	r24, r24
     29a:	09 f4       	brne	.+2      	; 0x29e <Num_uCreate+0x166>
     29c:	a6 c0       	rjmp	.+332    	; 0x3ea <Num_uCreate+0x2b2>
     29e:	99 81       	ldd	r25, Y+1	; 0x01
     2a0:	98 87       	std	Y+8, r25	; 0x08
     2a2:	aa 81       	ldd	r26, Y+2	; 0x02
     2a4:	a9 87       	std	Y+9, r26	; 0x09
     2a6:	1f 82       	std	Y+7, r1	; 0x07
     2a8:	22 24       	eor	r2, r2
     2aa:	19 82       	std	Y+1, r1	; 0x01
     2ac:	1a 82       	std	Y+2, r1	; 0x02
     2ae:	1b 82       	std	Y+3, r1	; 0x03
     2b0:	1c 82       	std	Y+4, r1	; 0x04
     2b2:	1d 82       	std	Y+5, r1	; 0x05
     2b4:	1e 82       	std	Y+6, r1	; 0x06
     2b6:	1a 86       	std	Y+10, r1	; 0x0a
	{
		returned_valu=returned_valu+arr[i]*R;
     2b8:	1c 87       	std	Y+12, r17	; 0x0c
     2ba:	e8 85       	ldd	r30, Y+8	; 0x08
     2bc:	f9 85       	ldd	r31, Y+9	; 0x09
     2be:	21 91       	ld	r18, Z+
     2c0:	f9 87       	std	Y+9, r31	; 0x09
     2c2:	e8 87       	std	Y+8, r30	; 0x08
     2c4:	30 e0       	ldi	r19, 0x00	; 0
     2c6:	40 e0       	ldi	r20, 0x00	; 0
     2c8:	50 e0       	ldi	r21, 0x00	; 0
     2ca:	60 e0       	ldi	r22, 0x00	; 0
     2cc:	70 e0       	ldi	r23, 0x00	; 0
     2ce:	80 e0       	ldi	r24, 0x00	; 0
     2d0:	90 e0       	ldi	r25, 0x00	; 0
     2d2:	a3 2c       	mov	r10, r3
     2d4:	b4 2c       	mov	r11, r4
     2d6:	c5 2c       	mov	r12, r5
     2d8:	d6 2c       	mov	r13, r6
     2da:	e7 2c       	mov	r14, r7
     2dc:	f8 2c       	mov	r15, r8
     2de:	09 2d       	mov	r16, r9
     2e0:	1c 85       	ldd	r17, Y+12	; 0x0c
     2e2:	0e 94 93 0b 	call	0x1726	; 0x1726 <__muldi3>
     2e6:	22 0d       	add	r18, r2
     2e8:	f1 e0       	ldi	r31, 0x01	; 1
     2ea:	22 15       	cp	r18, r2
     2ec:	08 f0       	brcs	.+2      	; 0x2f0 <Num_uCreate+0x1b8>
     2ee:	f0 e0       	ldi	r31, 0x00	; 0
     2f0:	a9 81       	ldd	r26, Y+1	; 0x01
     2f2:	3a 0f       	add	r19, r26
     2f4:	e1 e0       	ldi	r30, 0x01	; 1
     2f6:	3a 17       	cp	r19, r26
     2f8:	08 f0       	brcs	.+2      	; 0x2fc <Num_uCreate+0x1c4>
     2fa:	e0 e0       	ldi	r30, 0x00	; 0
     2fc:	f3 0f       	add	r31, r19
     2fe:	a1 e0       	ldi	r26, 0x01	; 1
     300:	f3 17       	cp	r31, r19
     302:	08 f0       	brcs	.+2      	; 0x306 <Num_uCreate+0x1ce>
     304:	a0 e0       	ldi	r26, 0x00	; 0
     306:	ea 2b       	or	r30, r26
     308:	ba 81       	ldd	r27, Y+2	; 0x02
     30a:	4b 0f       	add	r20, r27
     30c:	31 e0       	ldi	r19, 0x01	; 1
     30e:	4b 17       	cp	r20, r27
     310:	08 f0       	brcs	.+2      	; 0x314 <Num_uCreate+0x1dc>
     312:	30 e0       	ldi	r19, 0x00	; 0
     314:	e4 0f       	add	r30, r20
     316:	a1 e0       	ldi	r26, 0x01	; 1
     318:	e4 17       	cp	r30, r20
     31a:	08 f0       	brcs	.+2      	; 0x31e <Num_uCreate+0x1e6>
     31c:	a0 e0       	ldi	r26, 0x00	; 0
     31e:	3a 2b       	or	r19, r26
     320:	4b 81       	ldd	r20, Y+3	; 0x03
     322:	54 0f       	add	r21, r20
     324:	41 e0       	ldi	r20, 0x01	; 1
     326:	ab 81       	ldd	r26, Y+3	; 0x03
     328:	5a 17       	cp	r21, r26
     32a:	08 f0       	brcs	.+2      	; 0x32e <Num_uCreate+0x1f6>
     32c:	40 e0       	ldi	r20, 0x00	; 0
     32e:	35 0f       	add	r19, r21
     330:	a1 e0       	ldi	r26, 0x01	; 1
     332:	35 17       	cp	r19, r21
     334:	08 f0       	brcs	.+2      	; 0x338 <Num_uCreate+0x200>
     336:	a0 e0       	ldi	r26, 0x00	; 0
     338:	4a 2b       	or	r20, r26
     33a:	1c 81       	ldd	r17, Y+4	; 0x04
     33c:	16 0f       	add	r17, r22
     33e:	61 e0       	ldi	r22, 0x01	; 1
     340:	bc 81       	ldd	r27, Y+4	; 0x04
     342:	1b 17       	cp	r17, r27
     344:	08 f0       	brcs	.+2      	; 0x348 <Num_uCreate+0x210>
     346:	60 e0       	ldi	r22, 0x00	; 0
     348:	54 2f       	mov	r21, r20
     34a:	51 0f       	add	r21, r17
     34c:	41 e0       	ldi	r20, 0x01	; 1
     34e:	51 17       	cp	r21, r17
     350:	08 f0       	brcs	.+2      	; 0x354 <Num_uCreate+0x21c>
     352:	40 e0       	ldi	r20, 0x00	; 0
     354:	64 2b       	or	r22, r20
     356:	4d 81       	ldd	r20, Y+5	; 0x05
     358:	47 0f       	add	r20, r23
     35a:	71 e0       	ldi	r23, 0x01	; 1
     35c:	ad 81       	ldd	r26, Y+5	; 0x05
     35e:	4a 17       	cp	r20, r26
     360:	08 f0       	brcs	.+2      	; 0x364 <Num_uCreate+0x22c>
     362:	70 e0       	ldi	r23, 0x00	; 0
     364:	64 0f       	add	r22, r20
     366:	a1 e0       	ldi	r26, 0x01	; 1
     368:	64 17       	cp	r22, r20
     36a:	08 f0       	brcs	.+2      	; 0x36e <Num_uCreate+0x236>
     36c:	a0 e0       	ldi	r26, 0x00	; 0
     36e:	7a 2b       	or	r23, r26
     370:	be 81       	ldd	r27, Y+6	; 0x06
     372:	8b 0f       	add	r24, r27
     374:	41 e0       	ldi	r20, 0x01	; 1
     376:	8b 17       	cp	r24, r27
     378:	08 f0       	brcs	.+2      	; 0x37c <Num_uCreate+0x244>
     37a:	40 e0       	ldi	r20, 0x00	; 0
     37c:	78 0f       	add	r23, r24
     37e:	a1 e0       	ldi	r26, 0x01	; 1
     380:	78 17       	cp	r23, r24
     382:	08 f0       	brcs	.+2      	; 0x386 <Num_uCreate+0x24e>
     384:	a0 e0       	ldi	r26, 0x00	; 0
     386:	4a 2b       	or	r20, r26
     388:	8a 85       	ldd	r24, Y+10	; 0x0a
     38a:	98 0f       	add	r25, r24
     38c:	22 2e       	mov	r2, r18
     38e:	f9 83       	std	Y+1, r31	; 0x01
     390:	ea 83       	std	Y+2, r30	; 0x02
     392:	3b 83       	std	Y+3, r19	; 0x03
     394:	5c 83       	std	Y+4, r21	; 0x04
     396:	6d 83       	std	Y+5, r22	; 0x05
     398:	7e 83       	std	Y+6, r23	; 0x06
     39a:	49 0f       	add	r20, r25
     39c:	4a 87       	std	Y+10, r20	; 0x0a
	unsigned char i;
	for (i=1;(i<counter);i++)
	{
		R=R*10;
	}
	for (i=0;i<counter;i++,R/=10)
     39e:	9f 81       	ldd	r25, Y+7	; 0x07
     3a0:	9f 5f       	subi	r25, 0xFF	; 255
     3a2:	9f 83       	std	Y+7, r25	; 0x07
     3a4:	23 2d       	mov	r18, r3
     3a6:	34 2d       	mov	r19, r4
     3a8:	45 2d       	mov	r20, r5
     3aa:	56 2d       	mov	r21, r6
     3ac:	67 2d       	mov	r22, r7
     3ae:	78 2d       	mov	r23, r8
     3b0:	89 2d       	mov	r24, r9
     3b2:	9c 85       	ldd	r25, Y+12	; 0x0c
     3b4:	0f 2e       	mov	r0, r31
     3b6:	fa e0       	ldi	r31, 0x0A	; 10
     3b8:	af 2e       	mov	r10, r31
     3ba:	f0 2d       	mov	r31, r0
     3bc:	bb 24       	eor	r11, r11
     3be:	cc 24       	eor	r12, r12
     3c0:	dd 24       	eor	r13, r13
     3c2:	ee 24       	eor	r14, r14
     3c4:	ff 24       	eor	r15, r15
     3c6:	00 e0       	ldi	r16, 0x00	; 0
     3c8:	10 e0       	ldi	r17, 0x00	; 0
     3ca:	0e 94 e0 0c 	call	0x19c0	; 0x19c0 <__divdi3>
     3ce:	32 2e       	mov	r3, r18
     3d0:	43 2e       	mov	r4, r19
     3d2:	54 2e       	mov	r5, r20
     3d4:	65 2e       	mov	r6, r21
     3d6:	76 2e       	mov	r7, r22
     3d8:	87 2e       	mov	r8, r23
     3da:	98 2e       	mov	r9, r24
     3dc:	9c 87       	std	Y+12, r25	; 0x0c
     3de:	af 81       	ldd	r26, Y+7	; 0x07
     3e0:	bb 85       	ldd	r27, Y+11	; 0x0b
     3e2:	ab 17       	cp	r26, r27
     3e4:	09 f0       	breq	.+2      	; 0x3e8 <Num_uCreate+0x2b0>
     3e6:	69 cf       	rjmp	.-302    	; 0x2ba <Num_uCreate+0x182>
     3e8:	08 c0       	rjmp	.+16     	; 0x3fa <Num_uCreate+0x2c2>
     3ea:	22 24       	eor	r2, r2
     3ec:	19 82       	std	Y+1, r1	; 0x01
     3ee:	1a 82       	std	Y+2, r1	; 0x02
     3f0:	1b 82       	std	Y+3, r1	; 0x03
     3f2:	1c 82       	std	Y+4, r1	; 0x04
     3f4:	1d 82       	std	Y+5, r1	; 0x05
     3f6:	1e 82       	std	Y+6, r1	; 0x06
     3f8:	1a 86       	std	Y+10, r1	; 0x0a
	{
		returned_valu=returned_valu+arr[i]*R;
	}
	return returned_valu;
}
     3fa:	22 2d       	mov	r18, r2
     3fc:	39 81       	ldd	r19, Y+1	; 0x01
     3fe:	4a 81       	ldd	r20, Y+2	; 0x02
     400:	5b 81       	ldd	r21, Y+3	; 0x03
     402:	6c 81       	ldd	r22, Y+4	; 0x04
     404:	7d 81       	ldd	r23, Y+5	; 0x05
     406:	8e 81       	ldd	r24, Y+6	; 0x06
     408:	9a 85       	ldd	r25, Y+10	; 0x0a
     40a:	2c 96       	adiw	r28, 0x0c	; 12
     40c:	0f b6       	in	r0, 0x3f	; 63
     40e:	f8 94       	cli
     410:	de bf       	out	0x3e, r29	; 62
     412:	0f be       	out	0x3f, r0	; 63
     414:	cd bf       	out	0x3d, r28	; 61
     416:	df 91       	pop	r29
     418:	cf 91       	pop	r28
     41a:	1f 91       	pop	r17
     41c:	0f 91       	pop	r16
     41e:	ff 90       	pop	r15
     420:	ef 90       	pop	r14
     422:	df 90       	pop	r13
     424:	cf 90       	pop	r12
     426:	bf 90       	pop	r11
     428:	af 90       	pop	r10
     42a:	9f 90       	pop	r9
     42c:	8f 90       	pop	r8
     42e:	7f 90       	pop	r7
     430:	6f 90       	pop	r6
     432:	5f 90       	pop	r5
     434:	4f 90       	pop	r4
     436:	3f 90       	pop	r3
     438:	2f 90       	pop	r2
     43a:	08 95       	ret

0000043c <__Memset__>:

void __Memset__ (unsigned char *ptr,unsigned char valu,unsigned char _size_)
{
	unsigned char i=0;
	for (i=0;i<_size_;i++)
     43c:	44 23       	and	r20, r20
     43e:	39 f0       	breq	.+14     	; 0x44e <__Memset__+0x12>
     440:	e8 2f       	mov	r30, r24
     442:	f9 2f       	mov	r31, r25
     444:	80 e0       	ldi	r24, 0x00	; 0
	{
		ptr[i]=valu;
     446:	61 93       	st	Z+, r22
}

void __Memset__ (unsigned char *ptr,unsigned char valu,unsigned char _size_)
{
	unsigned char i=0;
	for (i=0;i<_size_;i++)
     448:	8f 5f       	subi	r24, 0xFF	; 255
     44a:	84 17       	cp	r24, r20
     44c:	e1 f7       	brne	.-8      	; 0x446 <__Memset__+0xa>
     44e:	08 95       	ret

00000450 <DIO_vSet_pin>:
#include "Std_macros.h"
#include "DIO.h"

void DIO_vSet_pin(unsigned char PORT,unsigned char pin,unsigned char InputOutput)
{
	switch(PORT)
     450:	84 34       	cpi	r24, 0x44	; 68
     452:	09 f4       	brne	.+2      	; 0x456 <DIO_vSet_pin+0x6>
     454:	71 c0       	rjmp	.+226    	; 0x538 <DIO_vSet_pin+0xe8>
     456:	85 34       	cpi	r24, 0x45	; 69
     458:	48 f4       	brcc	.+18     	; 0x46c <DIO_vSet_pin+0x1c>
     45a:	82 34       	cpi	r24, 0x42	; 66
     45c:	99 f1       	breq	.+102    	; 0x4c4 <DIO_vSet_pin+0x74>
     45e:	83 34       	cpi	r24, 0x43	; 67
     460:	08 f0       	brcs	.+2      	; 0x464 <DIO_vSet_pin+0x14>
     462:	4d c0       	rjmp	.+154    	; 0x4fe <DIO_vSet_pin+0xae>
     464:	81 34       	cpi	r24, 0x41	; 65
     466:	09 f0       	breq	.+2      	; 0x46a <DIO_vSet_pin+0x1a>
     468:	83 c0       	rjmp	.+262    	; 0x570 <DIO_vSet_pin+0x120>
     46a:	0f c0       	rjmp	.+30     	; 0x48a <DIO_vSet_pin+0x3a>
     46c:	82 36       	cpi	r24, 0x62	; 98
     46e:	51 f1       	breq	.+84     	; 0x4c4 <DIO_vSet_pin+0x74>
     470:	83 36       	cpi	r24, 0x63	; 99
     472:	20 f4       	brcc	.+8      	; 0x47c <DIO_vSet_pin+0x2c>
     474:	81 36       	cpi	r24, 0x61	; 97
     476:	09 f0       	breq	.+2      	; 0x47a <DIO_vSet_pin+0x2a>
     478:	7b c0       	rjmp	.+246    	; 0x570 <DIO_vSet_pin+0x120>
     47a:	07 c0       	rjmp	.+14     	; 0x48a <DIO_vSet_pin+0x3a>
     47c:	83 36       	cpi	r24, 0x63	; 99
     47e:	09 f4       	brne	.+2      	; 0x482 <DIO_vSet_pin+0x32>
     480:	3e c0       	rjmp	.+124    	; 0x4fe <DIO_vSet_pin+0xae>
     482:	84 36       	cpi	r24, 0x64	; 100
     484:	09 f0       	breq	.+2      	; 0x488 <DIO_vSet_pin+0x38>
     486:	74 c0       	rjmp	.+232    	; 0x570 <DIO_vSet_pin+0x120>
     488:	57 c0       	rjmp	.+174    	; 0x538 <DIO_vSet_pin+0xe8>
	{
		case 'A':
		case 'a':
		{
			if (InputOutput==1)
     48a:	41 30       	cpi	r20, 0x01	; 1
     48c:	69 f4       	brne	.+26     	; 0x4a8 <DIO_vSet_pin+0x58>
			{
				SET_BIT(DDRA,pin);
     48e:	2a b3       	in	r18, 0x1a	; 26
     490:	81 e0       	ldi	r24, 0x01	; 1
     492:	90 e0       	ldi	r25, 0x00	; 0
     494:	ac 01       	movw	r20, r24
     496:	02 c0       	rjmp	.+4      	; 0x49c <DIO_vSet_pin+0x4c>
     498:	44 0f       	add	r20, r20
     49a:	55 1f       	adc	r21, r21
     49c:	6a 95       	dec	r22
     49e:	e2 f7       	brpl	.-8      	; 0x498 <DIO_vSet_pin+0x48>
     4a0:	ba 01       	movw	r22, r20
     4a2:	62 2b       	or	r22, r18
     4a4:	6a bb       	out	0x1a, r22	; 26
     4a6:	08 95       	ret
			} 
			else
			{
				CLR_BIT(DDRA,pin);
     4a8:	2a b3       	in	r18, 0x1a	; 26
     4aa:	81 e0       	ldi	r24, 0x01	; 1
     4ac:	90 e0       	ldi	r25, 0x00	; 0
     4ae:	ac 01       	movw	r20, r24
     4b0:	02 c0       	rjmp	.+4      	; 0x4b6 <DIO_vSet_pin+0x66>
     4b2:	44 0f       	add	r20, r20
     4b4:	55 1f       	adc	r21, r21
     4b6:	6a 95       	dec	r22
     4b8:	e2 f7       	brpl	.-8      	; 0x4b2 <DIO_vSet_pin+0x62>
     4ba:	ba 01       	movw	r22, r20
     4bc:	60 95       	com	r22
     4be:	62 23       	and	r22, r18
     4c0:	6a bb       	out	0x1a, r22	; 26
     4c2:	08 95       	ret
			break;
		}
		case 'B':
		case 'b':
		{
			if (InputOutput==1)
     4c4:	41 30       	cpi	r20, 0x01	; 1
     4c6:	69 f4       	brne	.+26     	; 0x4e2 <DIO_vSet_pin+0x92>
			{
				SET_BIT(DDRB,pin);
     4c8:	27 b3       	in	r18, 0x17	; 23
     4ca:	81 e0       	ldi	r24, 0x01	; 1
     4cc:	90 e0       	ldi	r25, 0x00	; 0
     4ce:	ac 01       	movw	r20, r24
     4d0:	02 c0       	rjmp	.+4      	; 0x4d6 <DIO_vSet_pin+0x86>
     4d2:	44 0f       	add	r20, r20
     4d4:	55 1f       	adc	r21, r21
     4d6:	6a 95       	dec	r22
     4d8:	e2 f7       	brpl	.-8      	; 0x4d2 <DIO_vSet_pin+0x82>
     4da:	ba 01       	movw	r22, r20
     4dc:	62 2b       	or	r22, r18
     4de:	67 bb       	out	0x17, r22	; 23
     4e0:	08 95       	ret
			}
			else
			{
				CLR_BIT(DDRB,pin);
     4e2:	27 b3       	in	r18, 0x17	; 23
     4e4:	81 e0       	ldi	r24, 0x01	; 1
     4e6:	90 e0       	ldi	r25, 0x00	; 0
     4e8:	ac 01       	movw	r20, r24
     4ea:	02 c0       	rjmp	.+4      	; 0x4f0 <DIO_vSet_pin+0xa0>
     4ec:	44 0f       	add	r20, r20
     4ee:	55 1f       	adc	r21, r21
     4f0:	6a 95       	dec	r22
     4f2:	e2 f7       	brpl	.-8      	; 0x4ec <DIO_vSet_pin+0x9c>
     4f4:	ba 01       	movw	r22, r20
     4f6:	60 95       	com	r22
     4f8:	62 23       	and	r22, r18
     4fa:	67 bb       	out	0x17, r22	; 23
     4fc:	08 95       	ret
			break;
		}
		case 'C':
		case 'c':
		{
			if (InputOutput==1)
     4fe:	41 30       	cpi	r20, 0x01	; 1
     500:	69 f4       	brne	.+26     	; 0x51c <DIO_vSet_pin+0xcc>
			{
				SET_BIT(DDRC,pin);
     502:	24 b3       	in	r18, 0x14	; 20
     504:	81 e0       	ldi	r24, 0x01	; 1
     506:	90 e0       	ldi	r25, 0x00	; 0
     508:	ac 01       	movw	r20, r24
     50a:	02 c0       	rjmp	.+4      	; 0x510 <DIO_vSet_pin+0xc0>
     50c:	44 0f       	add	r20, r20
     50e:	55 1f       	adc	r21, r21
     510:	6a 95       	dec	r22
     512:	e2 f7       	brpl	.-8      	; 0x50c <DIO_vSet_pin+0xbc>
     514:	ba 01       	movw	r22, r20
     516:	62 2b       	or	r22, r18
     518:	64 bb       	out	0x14, r22	; 20
     51a:	08 95       	ret
			}
			else
			{
				CLR_BIT(DDRC,pin);
     51c:	24 b3       	in	r18, 0x14	; 20
     51e:	81 e0       	ldi	r24, 0x01	; 1
     520:	90 e0       	ldi	r25, 0x00	; 0
     522:	ac 01       	movw	r20, r24
     524:	02 c0       	rjmp	.+4      	; 0x52a <DIO_vSet_pin+0xda>
     526:	44 0f       	add	r20, r20
     528:	55 1f       	adc	r21, r21
     52a:	6a 95       	dec	r22
     52c:	e2 f7       	brpl	.-8      	; 0x526 <DIO_vSet_pin+0xd6>
     52e:	ba 01       	movw	r22, r20
     530:	60 95       	com	r22
     532:	62 23       	and	r22, r18
     534:	64 bb       	out	0x14, r22	; 20
     536:	08 95       	ret
			break;
		}
		case 'D':
		case 'd':
		{
			if (InputOutput==1)
     538:	41 30       	cpi	r20, 0x01	; 1
     53a:	69 f4       	brne	.+26     	; 0x556 <DIO_vSet_pin+0x106>
			{
				SET_BIT(DDRD,pin);
     53c:	21 b3       	in	r18, 0x11	; 17
     53e:	81 e0       	ldi	r24, 0x01	; 1
     540:	90 e0       	ldi	r25, 0x00	; 0
     542:	ac 01       	movw	r20, r24
     544:	02 c0       	rjmp	.+4      	; 0x54a <DIO_vSet_pin+0xfa>
     546:	44 0f       	add	r20, r20
     548:	55 1f       	adc	r21, r21
     54a:	6a 95       	dec	r22
     54c:	e2 f7       	brpl	.-8      	; 0x546 <DIO_vSet_pin+0xf6>
     54e:	ba 01       	movw	r22, r20
     550:	62 2b       	or	r22, r18
     552:	61 bb       	out	0x11, r22	; 17
     554:	08 95       	ret
			}
			else
			{
				CLR_BIT(DDRD,pin);
     556:	21 b3       	in	r18, 0x11	; 17
     558:	81 e0       	ldi	r24, 0x01	; 1
     55a:	90 e0       	ldi	r25, 0x00	; 0
     55c:	ac 01       	movw	r20, r24
     55e:	02 c0       	rjmp	.+4      	; 0x564 <DIO_vSet_pin+0x114>
     560:	44 0f       	add	r20, r20
     562:	55 1f       	adc	r21, r21
     564:	6a 95       	dec	r22
     566:	e2 f7       	brpl	.-8      	; 0x560 <DIO_vSet_pin+0x110>
     568:	ba 01       	movw	r22, r20
     56a:	60 95       	com	r22
     56c:	62 23       	and	r22, r18
     56e:	61 bb       	out	0x11, r22	; 17
     570:	08 95       	ret

00000572 <DIO_vWrite_pin>:
	}	
}

void DIO_vWrite_pin (unsigned char PORT,unsigned char pin,unsigned char DIR)
{
	switch(PORT)
     572:	84 34       	cpi	r24, 0x44	; 68
     574:	09 f4       	brne	.+2      	; 0x578 <DIO_vWrite_pin+0x6>
     576:	71 c0       	rjmp	.+226    	; 0x65a <DIO_vWrite_pin+0xe8>
     578:	85 34       	cpi	r24, 0x45	; 69
     57a:	48 f4       	brcc	.+18     	; 0x58e <DIO_vWrite_pin+0x1c>
     57c:	82 34       	cpi	r24, 0x42	; 66
     57e:	99 f1       	breq	.+102    	; 0x5e6 <DIO_vWrite_pin+0x74>
     580:	83 34       	cpi	r24, 0x43	; 67
     582:	08 f0       	brcs	.+2      	; 0x586 <DIO_vWrite_pin+0x14>
     584:	4d c0       	rjmp	.+154    	; 0x620 <DIO_vWrite_pin+0xae>
     586:	81 34       	cpi	r24, 0x41	; 65
     588:	09 f0       	breq	.+2      	; 0x58c <DIO_vWrite_pin+0x1a>
     58a:	83 c0       	rjmp	.+262    	; 0x692 <DIO_vWrite_pin+0x120>
     58c:	0f c0       	rjmp	.+30     	; 0x5ac <DIO_vWrite_pin+0x3a>
     58e:	82 36       	cpi	r24, 0x62	; 98
     590:	51 f1       	breq	.+84     	; 0x5e6 <DIO_vWrite_pin+0x74>
     592:	83 36       	cpi	r24, 0x63	; 99
     594:	20 f4       	brcc	.+8      	; 0x59e <DIO_vWrite_pin+0x2c>
     596:	81 36       	cpi	r24, 0x61	; 97
     598:	09 f0       	breq	.+2      	; 0x59c <DIO_vWrite_pin+0x2a>
     59a:	7b c0       	rjmp	.+246    	; 0x692 <DIO_vWrite_pin+0x120>
     59c:	07 c0       	rjmp	.+14     	; 0x5ac <DIO_vWrite_pin+0x3a>
     59e:	83 36       	cpi	r24, 0x63	; 99
     5a0:	09 f4       	brne	.+2      	; 0x5a4 <DIO_vWrite_pin+0x32>
     5a2:	3e c0       	rjmp	.+124    	; 0x620 <DIO_vWrite_pin+0xae>
     5a4:	84 36       	cpi	r24, 0x64	; 100
     5a6:	09 f0       	breq	.+2      	; 0x5aa <DIO_vWrite_pin+0x38>
     5a8:	74 c0       	rjmp	.+232    	; 0x692 <DIO_vWrite_pin+0x120>
     5aa:	57 c0       	rjmp	.+174    	; 0x65a <DIO_vWrite_pin+0xe8>
	{
		case 'A':
		case 'a':
		{
			if (DIR==1)
     5ac:	41 30       	cpi	r20, 0x01	; 1
     5ae:	69 f4       	brne	.+26     	; 0x5ca <DIO_vWrite_pin+0x58>
			{
				SET_BIT(PORTA,pin);
     5b0:	2b b3       	in	r18, 0x1b	; 27
     5b2:	81 e0       	ldi	r24, 0x01	; 1
     5b4:	90 e0       	ldi	r25, 0x00	; 0
     5b6:	ac 01       	movw	r20, r24
     5b8:	02 c0       	rjmp	.+4      	; 0x5be <DIO_vWrite_pin+0x4c>
     5ba:	44 0f       	add	r20, r20
     5bc:	55 1f       	adc	r21, r21
     5be:	6a 95       	dec	r22
     5c0:	e2 f7       	brpl	.-8      	; 0x5ba <DIO_vWrite_pin+0x48>
     5c2:	ba 01       	movw	r22, r20
     5c4:	62 2b       	or	r22, r18
     5c6:	6b bb       	out	0x1b, r22	; 27
     5c8:	08 95       	ret
			}
			else
			{
				CLR_BIT(PORTA,pin);
     5ca:	2b b3       	in	r18, 0x1b	; 27
     5cc:	81 e0       	ldi	r24, 0x01	; 1
     5ce:	90 e0       	ldi	r25, 0x00	; 0
     5d0:	ac 01       	movw	r20, r24
     5d2:	02 c0       	rjmp	.+4      	; 0x5d8 <DIO_vWrite_pin+0x66>
     5d4:	44 0f       	add	r20, r20
     5d6:	55 1f       	adc	r21, r21
     5d8:	6a 95       	dec	r22
     5da:	e2 f7       	brpl	.-8      	; 0x5d4 <DIO_vWrite_pin+0x62>
     5dc:	ba 01       	movw	r22, r20
     5de:	60 95       	com	r22
     5e0:	62 23       	and	r22, r18
     5e2:	6b bb       	out	0x1b, r22	; 27
     5e4:	08 95       	ret
			break;
		}
		case 'B':
		case 'b':
		{
			if (DIR==1)
     5e6:	41 30       	cpi	r20, 0x01	; 1
     5e8:	69 f4       	brne	.+26     	; 0x604 <DIO_vWrite_pin+0x92>
			{
				SET_BIT(PORTB,pin);
     5ea:	28 b3       	in	r18, 0x18	; 24
     5ec:	81 e0       	ldi	r24, 0x01	; 1
     5ee:	90 e0       	ldi	r25, 0x00	; 0
     5f0:	ac 01       	movw	r20, r24
     5f2:	02 c0       	rjmp	.+4      	; 0x5f8 <DIO_vWrite_pin+0x86>
     5f4:	44 0f       	add	r20, r20
     5f6:	55 1f       	adc	r21, r21
     5f8:	6a 95       	dec	r22
     5fa:	e2 f7       	brpl	.-8      	; 0x5f4 <DIO_vWrite_pin+0x82>
     5fc:	ba 01       	movw	r22, r20
     5fe:	62 2b       	or	r22, r18
     600:	68 bb       	out	0x18, r22	; 24
     602:	08 95       	ret
			}
			else
			{
				CLR_BIT(PORTB,pin);
     604:	28 b3       	in	r18, 0x18	; 24
     606:	81 e0       	ldi	r24, 0x01	; 1
     608:	90 e0       	ldi	r25, 0x00	; 0
     60a:	ac 01       	movw	r20, r24
     60c:	02 c0       	rjmp	.+4      	; 0x612 <DIO_vWrite_pin+0xa0>
     60e:	44 0f       	add	r20, r20
     610:	55 1f       	adc	r21, r21
     612:	6a 95       	dec	r22
     614:	e2 f7       	brpl	.-8      	; 0x60e <DIO_vWrite_pin+0x9c>
     616:	ba 01       	movw	r22, r20
     618:	60 95       	com	r22
     61a:	62 23       	and	r22, r18
     61c:	68 bb       	out	0x18, r22	; 24
     61e:	08 95       	ret
			break;
		}
		case 'C':
		case 'c':
		{
			if (DIR==1)
     620:	41 30       	cpi	r20, 0x01	; 1
     622:	69 f4       	brne	.+26     	; 0x63e <DIO_vWrite_pin+0xcc>
			{
				SET_BIT(PORTC,pin);
     624:	25 b3       	in	r18, 0x15	; 21
     626:	81 e0       	ldi	r24, 0x01	; 1
     628:	90 e0       	ldi	r25, 0x00	; 0
     62a:	ac 01       	movw	r20, r24
     62c:	02 c0       	rjmp	.+4      	; 0x632 <DIO_vWrite_pin+0xc0>
     62e:	44 0f       	add	r20, r20
     630:	55 1f       	adc	r21, r21
     632:	6a 95       	dec	r22
     634:	e2 f7       	brpl	.-8      	; 0x62e <DIO_vWrite_pin+0xbc>
     636:	ba 01       	movw	r22, r20
     638:	62 2b       	or	r22, r18
     63a:	65 bb       	out	0x15, r22	; 21
     63c:	08 95       	ret
			}
			else
			{
				CLR_BIT(PORTC,pin);
     63e:	25 b3       	in	r18, 0x15	; 21
     640:	81 e0       	ldi	r24, 0x01	; 1
     642:	90 e0       	ldi	r25, 0x00	; 0
     644:	ac 01       	movw	r20, r24
     646:	02 c0       	rjmp	.+4      	; 0x64c <DIO_vWrite_pin+0xda>
     648:	44 0f       	add	r20, r20
     64a:	55 1f       	adc	r21, r21
     64c:	6a 95       	dec	r22
     64e:	e2 f7       	brpl	.-8      	; 0x648 <DIO_vWrite_pin+0xd6>
     650:	ba 01       	movw	r22, r20
     652:	60 95       	com	r22
     654:	62 23       	and	r22, r18
     656:	65 bb       	out	0x15, r22	; 21
     658:	08 95       	ret
			break;
		}
		case 'D':
		case 'd':
		{
			if (DIR==1)
     65a:	41 30       	cpi	r20, 0x01	; 1
     65c:	69 f4       	brne	.+26     	; 0x678 <DIO_vWrite_pin+0x106>
			{
				SET_BIT(PORTD,pin);
     65e:	22 b3       	in	r18, 0x12	; 18
     660:	81 e0       	ldi	r24, 0x01	; 1
     662:	90 e0       	ldi	r25, 0x00	; 0
     664:	ac 01       	movw	r20, r24
     666:	02 c0       	rjmp	.+4      	; 0x66c <DIO_vWrite_pin+0xfa>
     668:	44 0f       	add	r20, r20
     66a:	55 1f       	adc	r21, r21
     66c:	6a 95       	dec	r22
     66e:	e2 f7       	brpl	.-8      	; 0x668 <DIO_vWrite_pin+0xf6>
     670:	ba 01       	movw	r22, r20
     672:	62 2b       	or	r22, r18
     674:	62 bb       	out	0x12, r22	; 18
     676:	08 95       	ret
			}
			else
			{
				CLR_BIT(PORTD,pin);
     678:	22 b3       	in	r18, 0x12	; 18
     67a:	81 e0       	ldi	r24, 0x01	; 1
     67c:	90 e0       	ldi	r25, 0x00	; 0
     67e:	ac 01       	movw	r20, r24
     680:	02 c0       	rjmp	.+4      	; 0x686 <DIO_vWrite_pin+0x114>
     682:	44 0f       	add	r20, r20
     684:	55 1f       	adc	r21, r21
     686:	6a 95       	dec	r22
     688:	e2 f7       	brpl	.-8      	; 0x682 <DIO_vWrite_pin+0x110>
     68a:	ba 01       	movw	r22, r20
     68c:	60 95       	com	r22
     68e:	62 23       	and	r22, r18
     690:	62 bb       	out	0x12, r22	; 18
     692:	08 95       	ret

00000694 <DIO_uRead_pin>:
}

unsigned char DIO_uRead_pin(unsigned char PORT,unsigned char pin)
{
	unsigned char Return_Valu=0;
	switch(PORT)
     694:	84 34       	cpi	r24, 0x44	; 68
     696:	09 f4       	brne	.+2      	; 0x69a <DIO_uRead_pin+0x6>
     698:	4e c0       	rjmp	.+156    	; 0x736 <DIO_uRead_pin+0xa2>
     69a:	85 34       	cpi	r24, 0x45	; 69
     69c:	40 f4       	brcc	.+16     	; 0x6ae <DIO_uRead_pin+0x1a>
     69e:	82 34       	cpi	r24, 0x42	; 66
     6a0:	31 f1       	breq	.+76     	; 0x6ee <DIO_uRead_pin+0x5a>
     6a2:	83 34       	cpi	r24, 0x43	; 67
     6a4:	b0 f5       	brcc	.+108    	; 0x712 <DIO_uRead_pin+0x7e>
     6a6:	81 34       	cpi	r24, 0x41	; 65
     6a8:	09 f0       	breq	.+2      	; 0x6ac <DIO_uRead_pin+0x18>
     6aa:	57 c0       	rjmp	.+174    	; 0x75a <DIO_uRead_pin+0xc6>
     6ac:	0e c0       	rjmp	.+28     	; 0x6ca <DIO_uRead_pin+0x36>
     6ae:	82 36       	cpi	r24, 0x62	; 98
     6b0:	f1 f0       	breq	.+60     	; 0x6ee <DIO_uRead_pin+0x5a>
     6b2:	83 36       	cpi	r24, 0x63	; 99
     6b4:	20 f4       	brcc	.+8      	; 0x6be <DIO_uRead_pin+0x2a>
     6b6:	81 36       	cpi	r24, 0x61	; 97
     6b8:	09 f0       	breq	.+2      	; 0x6bc <DIO_uRead_pin+0x28>
     6ba:	4f c0       	rjmp	.+158    	; 0x75a <DIO_uRead_pin+0xc6>
     6bc:	06 c0       	rjmp	.+12     	; 0x6ca <DIO_uRead_pin+0x36>
     6be:	83 36       	cpi	r24, 0x63	; 99
     6c0:	41 f1       	breq	.+80     	; 0x712 <DIO_uRead_pin+0x7e>
     6c2:	84 36       	cpi	r24, 0x64	; 100
     6c4:	09 f0       	breq	.+2      	; 0x6c8 <DIO_uRead_pin+0x34>
     6c6:	49 c0       	rjmp	.+146    	; 0x75a <DIO_uRead_pin+0xc6>
     6c8:	36 c0       	rjmp	.+108    	; 0x736 <DIO_uRead_pin+0xa2>
	{
		case 'a':
		case 'A':
		{
			Return_Valu=READ_BIT(PINA,pin);
     6ca:	29 b3       	in	r18, 0x19	; 25
     6cc:	81 e0       	ldi	r24, 0x01	; 1
     6ce:	90 e0       	ldi	r25, 0x00	; 0
     6d0:	06 2e       	mov	r0, r22
     6d2:	02 c0       	rjmp	.+4      	; 0x6d8 <DIO_uRead_pin+0x44>
     6d4:	88 0f       	add	r24, r24
     6d6:	99 1f       	adc	r25, r25
     6d8:	0a 94       	dec	r0
     6da:	e2 f7       	brpl	.-8      	; 0x6d4 <DIO_uRead_pin+0x40>
     6dc:	30 e0       	ldi	r19, 0x00	; 0
     6de:	82 23       	and	r24, r18
     6e0:	93 23       	and	r25, r19
     6e2:	02 c0       	rjmp	.+4      	; 0x6e8 <DIO_uRead_pin+0x54>
     6e4:	95 95       	asr	r25
     6e6:	87 95       	ror	r24
     6e8:	6a 95       	dec	r22
     6ea:	e2 f7       	brpl	.-8      	; 0x6e4 <DIO_uRead_pin+0x50>
			break;
     6ec:	08 95       	ret
		}
		case 'B':
		case 'b':
		{
			Return_Valu=READ_BIT(PINB,pin);
     6ee:	26 b3       	in	r18, 0x16	; 22
     6f0:	81 e0       	ldi	r24, 0x01	; 1
     6f2:	90 e0       	ldi	r25, 0x00	; 0
     6f4:	06 2e       	mov	r0, r22
     6f6:	02 c0       	rjmp	.+4      	; 0x6fc <DIO_uRead_pin+0x68>
     6f8:	88 0f       	add	r24, r24
     6fa:	99 1f       	adc	r25, r25
     6fc:	0a 94       	dec	r0
     6fe:	e2 f7       	brpl	.-8      	; 0x6f8 <DIO_uRead_pin+0x64>
     700:	30 e0       	ldi	r19, 0x00	; 0
     702:	82 23       	and	r24, r18
     704:	93 23       	and	r25, r19
     706:	02 c0       	rjmp	.+4      	; 0x70c <DIO_uRead_pin+0x78>
     708:	95 95       	asr	r25
     70a:	87 95       	ror	r24
     70c:	6a 95       	dec	r22
     70e:	e2 f7       	brpl	.-8      	; 0x708 <DIO_uRead_pin+0x74>
			break;
     710:	08 95       	ret
		}
		case 'C':
		case 'c':
		{
			Return_Valu=READ_BIT(PINC,pin);
     712:	23 b3       	in	r18, 0x13	; 19
     714:	81 e0       	ldi	r24, 0x01	; 1
     716:	90 e0       	ldi	r25, 0x00	; 0
     718:	06 2e       	mov	r0, r22
     71a:	02 c0       	rjmp	.+4      	; 0x720 <DIO_uRead_pin+0x8c>
     71c:	88 0f       	add	r24, r24
     71e:	99 1f       	adc	r25, r25
     720:	0a 94       	dec	r0
     722:	e2 f7       	brpl	.-8      	; 0x71c <DIO_uRead_pin+0x88>
     724:	30 e0       	ldi	r19, 0x00	; 0
     726:	82 23       	and	r24, r18
     728:	93 23       	and	r25, r19
     72a:	02 c0       	rjmp	.+4      	; 0x730 <DIO_uRead_pin+0x9c>
     72c:	95 95       	asr	r25
     72e:	87 95       	ror	r24
     730:	6a 95       	dec	r22
     732:	e2 f7       	brpl	.-8      	; 0x72c <DIO_uRead_pin+0x98>
			break;
     734:	08 95       	ret
		}
		case 'd':
		case 'D':
		{
			Return_Valu=READ_BIT(PIND,pin);
     736:	20 b3       	in	r18, 0x10	; 16
     738:	81 e0       	ldi	r24, 0x01	; 1
     73a:	90 e0       	ldi	r25, 0x00	; 0
     73c:	06 2e       	mov	r0, r22
     73e:	02 c0       	rjmp	.+4      	; 0x744 <DIO_uRead_pin+0xb0>
     740:	88 0f       	add	r24, r24
     742:	99 1f       	adc	r25, r25
     744:	0a 94       	dec	r0
     746:	e2 f7       	brpl	.-8      	; 0x740 <DIO_uRead_pin+0xac>
     748:	30 e0       	ldi	r19, 0x00	; 0
     74a:	82 23       	and	r24, r18
     74c:	93 23       	and	r25, r19
     74e:	02 c0       	rjmp	.+4      	; 0x754 <DIO_uRead_pin+0xc0>
     750:	95 95       	asr	r25
     752:	87 95       	ror	r24
     754:	6a 95       	dec	r22
     756:	e2 f7       	brpl	.-8      	; 0x750 <DIO_uRead_pin+0xbc>
			break;
     758:	08 95       	ret
	}
}

unsigned char DIO_uRead_pin(unsigned char PORT,unsigned char pin)
{
	unsigned char Return_Valu=0;
     75a:	80 e0       	ldi	r24, 0x00	; 0
		{
			break;
		}
	}
	return Return_Valu;
}
     75c:	08 95       	ret

0000075e <DIO_vTog_pin>:

void DIO_vTog_pin (unsigned char PORT, unsigned char pin)
{
	switch(PORT)
     75e:	84 34       	cpi	r24, 0x44	; 68
     760:	09 f4       	brne	.+2      	; 0x764 <DIO_vTog_pin+0x6>
     762:	3d c0       	rjmp	.+122    	; 0x7de <DIO_vTog_pin+0x80>
     764:	85 34       	cpi	r24, 0x45	; 69
     766:	40 f4       	brcc	.+16     	; 0x778 <DIO_vTog_pin+0x1a>
     768:	82 34       	cpi	r24, 0x42	; 66
     76a:	f9 f0       	breq	.+62     	; 0x7aa <DIO_vTog_pin+0x4c>
     76c:	83 34       	cpi	r24, 0x43	; 67
     76e:	50 f5       	brcc	.+84     	; 0x7c4 <DIO_vTog_pin+0x66>
     770:	81 34       	cpi	r24, 0x41	; 65
     772:	09 f0       	breq	.+2      	; 0x776 <DIO_vTog_pin+0x18>
     774:	40 c0       	rjmp	.+128    	; 0x7f6 <DIO_vTog_pin+0x98>
     776:	0c c0       	rjmp	.+24     	; 0x790 <DIO_vTog_pin+0x32>
     778:	82 36       	cpi	r24, 0x62	; 98
     77a:	b9 f0       	breq	.+46     	; 0x7aa <DIO_vTog_pin+0x4c>
     77c:	83 36       	cpi	r24, 0x63	; 99
     77e:	18 f4       	brcc	.+6      	; 0x786 <DIO_vTog_pin+0x28>
     780:	81 36       	cpi	r24, 0x61	; 97
     782:	c9 f5       	brne	.+114    	; 0x7f6 <DIO_vTog_pin+0x98>
     784:	05 c0       	rjmp	.+10     	; 0x790 <DIO_vTog_pin+0x32>
     786:	83 36       	cpi	r24, 0x63	; 99
     788:	e9 f0       	breq	.+58     	; 0x7c4 <DIO_vTog_pin+0x66>
     78a:	84 36       	cpi	r24, 0x64	; 100
     78c:	a1 f5       	brne	.+104    	; 0x7f6 <DIO_vTog_pin+0x98>
     78e:	27 c0       	rjmp	.+78     	; 0x7de <DIO_vTog_pin+0x80>
	{
		case 'A':
		case 'a':
		{
			TOG_BIT(PORTA,pin);
     790:	2b b3       	in	r18, 0x1b	; 27
     792:	81 e0       	ldi	r24, 0x01	; 1
     794:	90 e0       	ldi	r25, 0x00	; 0
     796:	ac 01       	movw	r20, r24
     798:	02 c0       	rjmp	.+4      	; 0x79e <DIO_vTog_pin+0x40>
     79a:	44 0f       	add	r20, r20
     79c:	55 1f       	adc	r21, r21
     79e:	6a 95       	dec	r22
     7a0:	e2 f7       	brpl	.-8      	; 0x79a <DIO_vTog_pin+0x3c>
     7a2:	ba 01       	movw	r22, r20
     7a4:	62 27       	eor	r22, r18
     7a6:	6b bb       	out	0x1b, r22	; 27
			break;
     7a8:	08 95       	ret
		}
		case 'B':
		case 'b':
		{
			TOG_BIT(PORTB,pin);
     7aa:	28 b3       	in	r18, 0x18	; 24
     7ac:	81 e0       	ldi	r24, 0x01	; 1
     7ae:	90 e0       	ldi	r25, 0x00	; 0
     7b0:	ac 01       	movw	r20, r24
     7b2:	02 c0       	rjmp	.+4      	; 0x7b8 <DIO_vTog_pin+0x5a>
     7b4:	44 0f       	add	r20, r20
     7b6:	55 1f       	adc	r21, r21
     7b8:	6a 95       	dec	r22
     7ba:	e2 f7       	brpl	.-8      	; 0x7b4 <DIO_vTog_pin+0x56>
     7bc:	ba 01       	movw	r22, r20
     7be:	62 27       	eor	r22, r18
     7c0:	68 bb       	out	0x18, r22	; 24
			break;
     7c2:	08 95       	ret
		}
		case 'C':
		case 'c':
		{
			TOG_BIT(PORTC,pin);
     7c4:	25 b3       	in	r18, 0x15	; 21
     7c6:	81 e0       	ldi	r24, 0x01	; 1
     7c8:	90 e0       	ldi	r25, 0x00	; 0
     7ca:	ac 01       	movw	r20, r24
     7cc:	02 c0       	rjmp	.+4      	; 0x7d2 <DIO_vTog_pin+0x74>
     7ce:	44 0f       	add	r20, r20
     7d0:	55 1f       	adc	r21, r21
     7d2:	6a 95       	dec	r22
     7d4:	e2 f7       	brpl	.-8      	; 0x7ce <DIO_vTog_pin+0x70>
     7d6:	ba 01       	movw	r22, r20
     7d8:	62 27       	eor	r22, r18
     7da:	65 bb       	out	0x15, r22	; 21
			break;
     7dc:	08 95       	ret
		}
		case 'D':
		case 'd':
		{
			TOG_BIT(PORTD,pin);
     7de:	22 b3       	in	r18, 0x12	; 18
     7e0:	81 e0       	ldi	r24, 0x01	; 1
     7e2:	90 e0       	ldi	r25, 0x00	; 0
     7e4:	ac 01       	movw	r20, r24
     7e6:	02 c0       	rjmp	.+4      	; 0x7ec <DIO_vTog_pin+0x8e>
     7e8:	44 0f       	add	r20, r20
     7ea:	55 1f       	adc	r21, r21
     7ec:	6a 95       	dec	r22
     7ee:	e2 f7       	brpl	.-8      	; 0x7e8 <DIO_vTog_pin+0x8a>
     7f0:	ba 01       	movw	r22, r20
     7f2:	62 27       	eor	r22, r18
     7f4:	62 bb       	out	0x12, r22	; 18
     7f6:	08 95       	ret

000007f8 <DIO_vSet_port>:
	}
}

void DIO_vSet_port (unsigned char PORT, unsigned char InputOutput)
{
	switch(PORT)
     7f8:	84 34       	cpi	r24, 0x44	; 68
     7fa:	d9 f0       	breq	.+54     	; 0x832 <DIO_vSet_port+0x3a>
     7fc:	85 34       	cpi	r24, 0x45	; 69
     7fe:	38 f4       	brcc	.+14     	; 0x80e <DIO_vSet_port+0x16>
     800:	82 34       	cpi	r24, 0x42	; 66
     802:	99 f0       	breq	.+38     	; 0x82a <DIO_vSet_port+0x32>
     804:	83 34       	cpi	r24, 0x43	; 67
     806:	98 f4       	brcc	.+38     	; 0x82e <DIO_vSet_port+0x36>
     808:	81 34       	cpi	r24, 0x41	; 65
     80a:	a1 f4       	brne	.+40     	; 0x834 <DIO_vSet_port+0x3c>
     80c:	0c c0       	rjmp	.+24     	; 0x826 <DIO_vSet_port+0x2e>
     80e:	82 36       	cpi	r24, 0x62	; 98
     810:	61 f0       	breq	.+24     	; 0x82a <DIO_vSet_port+0x32>
     812:	83 36       	cpi	r24, 0x63	; 99
     814:	18 f4       	brcc	.+6      	; 0x81c <DIO_vSet_port+0x24>
     816:	81 36       	cpi	r24, 0x61	; 97
     818:	69 f4       	brne	.+26     	; 0x834 <DIO_vSet_port+0x3c>
     81a:	05 c0       	rjmp	.+10     	; 0x826 <DIO_vSet_port+0x2e>
     81c:	83 36       	cpi	r24, 0x63	; 99
     81e:	39 f0       	breq	.+14     	; 0x82e <DIO_vSet_port+0x36>
     820:	84 36       	cpi	r24, 0x64	; 100
     822:	41 f4       	brne	.+16     	; 0x834 <DIO_vSet_port+0x3c>
     824:	06 c0       	rjmp	.+12     	; 0x832 <DIO_vSet_port+0x3a>
	{
		case 'A':
		case 'a':
		{
			DDRA=InputOutput;
     826:	6a bb       	out	0x1a, r22	; 26
			break;
     828:	08 95       	ret
		}
		case 'B':
		case 'b':
		{
			DDRB=InputOutput;
     82a:	67 bb       	out	0x17, r22	; 23
			break;
     82c:	08 95       	ret
		}
		case 'C':
		case 'c':
		{
			DDRC=InputOutput;
     82e:	64 bb       	out	0x14, r22	; 20
			break;
     830:	08 95       	ret
		}
		case 'D':
		case 'd':
		{
			DDRD=InputOutput;
     832:	61 bb       	out	0x11, r22	; 17
     834:	08 95       	ret

00000836 <DIO_vWrite_port>:
	}
}

void DIO_vWrite_port (unsigned char PORT,unsigned char portvalue)
{
	switch(PORT)
     836:	84 34       	cpi	r24, 0x44	; 68
     838:	d9 f0       	breq	.+54     	; 0x870 <__stack+0x11>
     83a:	85 34       	cpi	r24, 0x45	; 69
     83c:	38 f4       	brcc	.+14     	; 0x84c <DIO_vWrite_port+0x16>
     83e:	82 34       	cpi	r24, 0x42	; 66
     840:	99 f0       	breq	.+38     	; 0x868 <__stack+0x9>
     842:	83 34       	cpi	r24, 0x43	; 67
     844:	98 f4       	brcc	.+38     	; 0x86c <__stack+0xd>
     846:	81 34       	cpi	r24, 0x41	; 65
     848:	a1 f4       	brne	.+40     	; 0x872 <__stack+0x13>
     84a:	0c c0       	rjmp	.+24     	; 0x864 <__stack+0x5>
     84c:	82 36       	cpi	r24, 0x62	; 98
     84e:	61 f0       	breq	.+24     	; 0x868 <__stack+0x9>
     850:	83 36       	cpi	r24, 0x63	; 99
     852:	18 f4       	brcc	.+6      	; 0x85a <DIO_vWrite_port+0x24>
     854:	81 36       	cpi	r24, 0x61	; 97
     856:	69 f4       	brne	.+26     	; 0x872 <__stack+0x13>
     858:	05 c0       	rjmp	.+10     	; 0x864 <__stack+0x5>
     85a:	83 36       	cpi	r24, 0x63	; 99
     85c:	39 f0       	breq	.+14     	; 0x86c <__stack+0xd>
     85e:	84 36       	cpi	r24, 0x64	; 100
     860:	41 f4       	brne	.+16     	; 0x872 <__stack+0x13>
     862:	06 c0       	rjmp	.+12     	; 0x870 <__stack+0x11>
	{
		case 'A':
		case 'a':
		{
			PORTA=portvalue;
     864:	6b bb       	out	0x1b, r22	; 27
			break;
     866:	08 95       	ret
		}
		case 'B':
		case 'b':
		{
			PORTB=portvalue;
     868:	68 bb       	out	0x18, r22	; 24
			break;
     86a:	08 95       	ret
		}
		case 'C':
		case 'c':
		{
			PORTC=portvalue;
     86c:	65 bb       	out	0x15, r22	; 21
			break;
     86e:	08 95       	ret
		}
		case 'D':
		case 'd':
		{
			PORTD=portvalue;
     870:	62 bb       	out	0x12, r22	; 18
     872:	08 95       	ret

00000874 <DIO_uRead_port>:
}

unsigned char DIO_uRead_port (unsigned char PORT)
{
	unsigned char Return_valu=0;
	switch(PORT)
     874:	84 34       	cpi	r24, 0x44	; 68
     876:	d9 f0       	breq	.+54     	; 0x8ae <DIO_uRead_port+0x3a>
     878:	85 34       	cpi	r24, 0x45	; 69
     87a:	38 f4       	brcc	.+14     	; 0x88a <DIO_uRead_port+0x16>
     87c:	82 34       	cpi	r24, 0x42	; 66
     87e:	99 f0       	breq	.+38     	; 0x8a6 <DIO_uRead_port+0x32>
     880:	83 34       	cpi	r24, 0x43	; 67
     882:	98 f4       	brcc	.+38     	; 0x8aa <DIO_uRead_port+0x36>
     884:	81 34       	cpi	r24, 0x41	; 65
     886:	a9 f4       	brne	.+42     	; 0x8b2 <DIO_uRead_port+0x3e>
     888:	0c c0       	rjmp	.+24     	; 0x8a2 <DIO_uRead_port+0x2e>
     88a:	82 36       	cpi	r24, 0x62	; 98
     88c:	61 f0       	breq	.+24     	; 0x8a6 <DIO_uRead_port+0x32>
     88e:	83 36       	cpi	r24, 0x63	; 99
     890:	18 f4       	brcc	.+6      	; 0x898 <DIO_uRead_port+0x24>
     892:	81 36       	cpi	r24, 0x61	; 97
     894:	71 f4       	brne	.+28     	; 0x8b2 <DIO_uRead_port+0x3e>
     896:	05 c0       	rjmp	.+10     	; 0x8a2 <DIO_uRead_port+0x2e>
     898:	83 36       	cpi	r24, 0x63	; 99
     89a:	39 f0       	breq	.+14     	; 0x8aa <DIO_uRead_port+0x36>
     89c:	84 36       	cpi	r24, 0x64	; 100
     89e:	49 f4       	brne	.+18     	; 0x8b2 <DIO_uRead_port+0x3e>
     8a0:	06 c0       	rjmp	.+12     	; 0x8ae <DIO_uRead_port+0x3a>
	{
		case 'A':
		case 'a':
		{
			Return_valu=PINA;
     8a2:	89 b3       	in	r24, 0x19	; 25
			break;
     8a4:	08 95       	ret
		}
		case 'B':
		case 'b':
		{
			Return_valu=PINB;
     8a6:	86 b3       	in	r24, 0x16	; 22
			break;
     8a8:	08 95       	ret
		}
		case 'C':
		case 'c':
		{
			Return_valu=PINC;
     8aa:	83 b3       	in	r24, 0x13	; 19
			break;
     8ac:	08 95       	ret
		}
		case 'D':
		case 'd':
		{
			Return_valu=PIND;
     8ae:	80 b3       	in	r24, 0x10	; 16
			break;
     8b0:	08 95       	ret
	}
}

unsigned char DIO_uRead_port (unsigned char PORT)
{
	unsigned char Return_valu=0;
     8b2:	80 e0       	ldi	r24, 0x00	; 0
		{
			break;
		}
	}
	return Return_valu;
}
     8b4:	08 95       	ret

000008b6 <DIO_vTog_port>:

void DIO_vTog_port (unsigned char PORT)
{
	switch(PORT)
     8b6:	84 34       	cpi	r24, 0x44	; 68
     8b8:	09 f1       	breq	.+66     	; 0x8fc <DIO_vTog_port+0x46>
     8ba:	85 34       	cpi	r24, 0x45	; 69
     8bc:	38 f4       	brcc	.+14     	; 0x8cc <DIO_vTog_port+0x16>
     8be:	82 34       	cpi	r24, 0x42	; 66
     8c0:	a9 f0       	breq	.+42     	; 0x8ec <DIO_vTog_port+0x36>
     8c2:	83 34       	cpi	r24, 0x43	; 67
     8c4:	b8 f4       	brcc	.+46     	; 0x8f4 <DIO_vTog_port+0x3e>
     8c6:	81 34       	cpi	r24, 0x41	; 65
     8c8:	e1 f4       	brne	.+56     	; 0x902 <DIO_vTog_port+0x4c>
     8ca:	0c c0       	rjmp	.+24     	; 0x8e4 <DIO_vTog_port+0x2e>
     8cc:	82 36       	cpi	r24, 0x62	; 98
     8ce:	71 f0       	breq	.+28     	; 0x8ec <DIO_vTog_port+0x36>
     8d0:	83 36       	cpi	r24, 0x63	; 99
     8d2:	18 f4       	brcc	.+6      	; 0x8da <DIO_vTog_port+0x24>
     8d4:	81 36       	cpi	r24, 0x61	; 97
     8d6:	a9 f4       	brne	.+42     	; 0x902 <DIO_vTog_port+0x4c>
     8d8:	05 c0       	rjmp	.+10     	; 0x8e4 <DIO_vTog_port+0x2e>
     8da:	83 36       	cpi	r24, 0x63	; 99
     8dc:	59 f0       	breq	.+22     	; 0x8f4 <DIO_vTog_port+0x3e>
     8de:	84 36       	cpi	r24, 0x64	; 100
     8e0:	81 f4       	brne	.+32     	; 0x902 <DIO_vTog_port+0x4c>
     8e2:	0c c0       	rjmp	.+24     	; 0x8fc <DIO_vTog_port+0x46>
	{
		case 'A':
		case 'a':
		{
			PORTA=~PORTA;
     8e4:	8b b3       	in	r24, 0x1b	; 27
     8e6:	80 95       	com	r24
     8e8:	8b bb       	out	0x1b, r24	; 27
			break;
     8ea:	08 95       	ret
		}
		case 'B':
		case 'b':
		{
			PORTB=~PORTB;
     8ec:	88 b3       	in	r24, 0x18	; 24
     8ee:	80 95       	com	r24
     8f0:	88 bb       	out	0x18, r24	; 24
			break;
     8f2:	08 95       	ret
		}
		case 'C':
		case 'c':
		{
			PORTC=~PORTC;
     8f4:	85 b3       	in	r24, 0x15	; 21
     8f6:	80 95       	com	r24
     8f8:	85 bb       	out	0x15, r24	; 21
			break;
     8fa:	08 95       	ret
		}
		case 'D':
		case 'd':
		{
			PORTD=~PORTD;
     8fc:	82 b3       	in	r24, 0x12	; 18
     8fe:	80 95       	com	r24
     900:	82 bb       	out	0x12, r24	; 18
     902:	08 95       	ret

00000904 <DIO_vInternalpullup>:
	}
}

void DIO_vInternalpullup (unsigned char PORT,unsigned char pin,unsigned char DIR)
{
	switch(PORT)
     904:	84 34       	cpi	r24, 0x44	; 68
     906:	09 f4       	brne	.+2      	; 0x90a <DIO_vInternalpullup+0x6>
     908:	71 c0       	rjmp	.+226    	; 0x9ec <DIO_vInternalpullup+0xe8>
     90a:	85 34       	cpi	r24, 0x45	; 69
     90c:	48 f4       	brcc	.+18     	; 0x920 <DIO_vInternalpullup+0x1c>
     90e:	82 34       	cpi	r24, 0x42	; 66
     910:	99 f1       	breq	.+102    	; 0x978 <DIO_vInternalpullup+0x74>
     912:	83 34       	cpi	r24, 0x43	; 67
     914:	08 f0       	brcs	.+2      	; 0x918 <DIO_vInternalpullup+0x14>
     916:	4d c0       	rjmp	.+154    	; 0x9b2 <DIO_vInternalpullup+0xae>
     918:	81 34       	cpi	r24, 0x41	; 65
     91a:	09 f0       	breq	.+2      	; 0x91e <DIO_vInternalpullup+0x1a>
     91c:	83 c0       	rjmp	.+262    	; 0xa24 <DIO_vInternalpullup+0x120>
     91e:	0f c0       	rjmp	.+30     	; 0x93e <DIO_vInternalpullup+0x3a>
     920:	82 36       	cpi	r24, 0x62	; 98
     922:	51 f1       	breq	.+84     	; 0x978 <DIO_vInternalpullup+0x74>
     924:	83 36       	cpi	r24, 0x63	; 99
     926:	20 f4       	brcc	.+8      	; 0x930 <DIO_vInternalpullup+0x2c>
     928:	81 36       	cpi	r24, 0x61	; 97
     92a:	09 f0       	breq	.+2      	; 0x92e <DIO_vInternalpullup+0x2a>
     92c:	7b c0       	rjmp	.+246    	; 0xa24 <DIO_vInternalpullup+0x120>
     92e:	07 c0       	rjmp	.+14     	; 0x93e <DIO_vInternalpullup+0x3a>
     930:	83 36       	cpi	r24, 0x63	; 99
     932:	09 f4       	brne	.+2      	; 0x936 <DIO_vInternalpullup+0x32>
     934:	3e c0       	rjmp	.+124    	; 0x9b2 <DIO_vInternalpullup+0xae>
     936:	84 36       	cpi	r24, 0x64	; 100
     938:	09 f0       	breq	.+2      	; 0x93c <DIO_vInternalpullup+0x38>
     93a:	74 c0       	rjmp	.+232    	; 0xa24 <DIO_vInternalpullup+0x120>
     93c:	57 c0       	rjmp	.+174    	; 0x9ec <DIO_vInternalpullup+0xe8>
	{
		case 'A':
		case 'a':
		{
			if (DIR==1)
     93e:	41 30       	cpi	r20, 0x01	; 1
     940:	69 f4       	brne	.+26     	; 0x95c <DIO_vInternalpullup+0x58>
			{
				SET_BIT(PORTA,pin);
     942:	2b b3       	in	r18, 0x1b	; 27
     944:	81 e0       	ldi	r24, 0x01	; 1
     946:	90 e0       	ldi	r25, 0x00	; 0
     948:	ac 01       	movw	r20, r24
     94a:	02 c0       	rjmp	.+4      	; 0x950 <DIO_vInternalpullup+0x4c>
     94c:	44 0f       	add	r20, r20
     94e:	55 1f       	adc	r21, r21
     950:	6a 95       	dec	r22
     952:	e2 f7       	brpl	.-8      	; 0x94c <DIO_vInternalpullup+0x48>
     954:	ba 01       	movw	r22, r20
     956:	62 2b       	or	r22, r18
     958:	6b bb       	out	0x1b, r22	; 27
     95a:	08 95       	ret
			}
			else
			{
				CLR_BIT(PORTA,pin);
     95c:	2b b3       	in	r18, 0x1b	; 27
     95e:	81 e0       	ldi	r24, 0x01	; 1
     960:	90 e0       	ldi	r25, 0x00	; 0
     962:	ac 01       	movw	r20, r24
     964:	02 c0       	rjmp	.+4      	; 0x96a <DIO_vInternalpullup+0x66>
     966:	44 0f       	add	r20, r20
     968:	55 1f       	adc	r21, r21
     96a:	6a 95       	dec	r22
     96c:	e2 f7       	brpl	.-8      	; 0x966 <DIO_vInternalpullup+0x62>
     96e:	ba 01       	movw	r22, r20
     970:	60 95       	com	r22
     972:	62 23       	and	r22, r18
     974:	6b bb       	out	0x1b, r22	; 27
     976:	08 95       	ret
			break;
		}
		case 'B':
		case 'b':
		{
			if (DIR==1)
     978:	41 30       	cpi	r20, 0x01	; 1
     97a:	69 f4       	brne	.+26     	; 0x996 <DIO_vInternalpullup+0x92>
			{
				SET_BIT(PORTB,pin);
     97c:	28 b3       	in	r18, 0x18	; 24
     97e:	81 e0       	ldi	r24, 0x01	; 1
     980:	90 e0       	ldi	r25, 0x00	; 0
     982:	ac 01       	movw	r20, r24
     984:	02 c0       	rjmp	.+4      	; 0x98a <DIO_vInternalpullup+0x86>
     986:	44 0f       	add	r20, r20
     988:	55 1f       	adc	r21, r21
     98a:	6a 95       	dec	r22
     98c:	e2 f7       	brpl	.-8      	; 0x986 <DIO_vInternalpullup+0x82>
     98e:	ba 01       	movw	r22, r20
     990:	62 2b       	or	r22, r18
     992:	68 bb       	out	0x18, r22	; 24
     994:	08 95       	ret
			}
			else
			{
				CLR_BIT(PORTB,pin);
     996:	28 b3       	in	r18, 0x18	; 24
     998:	81 e0       	ldi	r24, 0x01	; 1
     99a:	90 e0       	ldi	r25, 0x00	; 0
     99c:	ac 01       	movw	r20, r24
     99e:	02 c0       	rjmp	.+4      	; 0x9a4 <DIO_vInternalpullup+0xa0>
     9a0:	44 0f       	add	r20, r20
     9a2:	55 1f       	adc	r21, r21
     9a4:	6a 95       	dec	r22
     9a6:	e2 f7       	brpl	.-8      	; 0x9a0 <DIO_vInternalpullup+0x9c>
     9a8:	ba 01       	movw	r22, r20
     9aa:	60 95       	com	r22
     9ac:	62 23       	and	r22, r18
     9ae:	68 bb       	out	0x18, r22	; 24
     9b0:	08 95       	ret
			break;
		}
		case 'C':
		case 'c':
		{
			if (DIR==1)
     9b2:	41 30       	cpi	r20, 0x01	; 1
     9b4:	69 f4       	brne	.+26     	; 0x9d0 <DIO_vInternalpullup+0xcc>
			{
				SET_BIT(PORTC,pin);
     9b6:	25 b3       	in	r18, 0x15	; 21
     9b8:	81 e0       	ldi	r24, 0x01	; 1
     9ba:	90 e0       	ldi	r25, 0x00	; 0
     9bc:	ac 01       	movw	r20, r24
     9be:	02 c0       	rjmp	.+4      	; 0x9c4 <DIO_vInternalpullup+0xc0>
     9c0:	44 0f       	add	r20, r20
     9c2:	55 1f       	adc	r21, r21
     9c4:	6a 95       	dec	r22
     9c6:	e2 f7       	brpl	.-8      	; 0x9c0 <DIO_vInternalpullup+0xbc>
     9c8:	ba 01       	movw	r22, r20
     9ca:	62 2b       	or	r22, r18
     9cc:	65 bb       	out	0x15, r22	; 21
     9ce:	08 95       	ret
			}
			else
			{
				CLR_BIT(PORTC,pin);
     9d0:	25 b3       	in	r18, 0x15	; 21
     9d2:	81 e0       	ldi	r24, 0x01	; 1
     9d4:	90 e0       	ldi	r25, 0x00	; 0
     9d6:	ac 01       	movw	r20, r24
     9d8:	02 c0       	rjmp	.+4      	; 0x9de <DIO_vInternalpullup+0xda>
     9da:	44 0f       	add	r20, r20
     9dc:	55 1f       	adc	r21, r21
     9de:	6a 95       	dec	r22
     9e0:	e2 f7       	brpl	.-8      	; 0x9da <DIO_vInternalpullup+0xd6>
     9e2:	ba 01       	movw	r22, r20
     9e4:	60 95       	com	r22
     9e6:	62 23       	and	r22, r18
     9e8:	65 bb       	out	0x15, r22	; 21
     9ea:	08 95       	ret
			break;
		}
		case 'D':
		case 'd':
		{
			if (DIR==1)
     9ec:	41 30       	cpi	r20, 0x01	; 1
     9ee:	69 f4       	brne	.+26     	; 0xa0a <DIO_vInternalpullup+0x106>
			{
				SET_BIT(PORTD,pin);
     9f0:	22 b3       	in	r18, 0x12	; 18
     9f2:	81 e0       	ldi	r24, 0x01	; 1
     9f4:	90 e0       	ldi	r25, 0x00	; 0
     9f6:	ac 01       	movw	r20, r24
     9f8:	02 c0       	rjmp	.+4      	; 0x9fe <DIO_vInternalpullup+0xfa>
     9fa:	44 0f       	add	r20, r20
     9fc:	55 1f       	adc	r21, r21
     9fe:	6a 95       	dec	r22
     a00:	e2 f7       	brpl	.-8      	; 0x9fa <DIO_vInternalpullup+0xf6>
     a02:	ba 01       	movw	r22, r20
     a04:	62 2b       	or	r22, r18
     a06:	62 bb       	out	0x12, r22	; 18
     a08:	08 95       	ret
			}
			else
			{
				CLR_BIT(PORTD,pin);
     a0a:	22 b3       	in	r18, 0x12	; 18
     a0c:	81 e0       	ldi	r24, 0x01	; 1
     a0e:	90 e0       	ldi	r25, 0x00	; 0
     a10:	ac 01       	movw	r20, r24
     a12:	02 c0       	rjmp	.+4      	; 0xa18 <DIO_vInternalpullup+0x114>
     a14:	44 0f       	add	r20, r20
     a16:	55 1f       	adc	r21, r21
     a18:	6a 95       	dec	r22
     a1a:	e2 f7       	brpl	.-8      	; 0xa14 <DIO_vInternalpullup+0x110>
     a1c:	ba 01       	movw	r22, r20
     a1e:	60 95       	com	r22
     a20:	62 23       	and	r22, r18
     a22:	62 bb       	out	0x12, r22	; 18
     a24:	08 95       	ret

00000a26 <DIO_vWrite_nibble>:
	}
}


void DIO_vWrite_nibble (unsigned char PORT,unsigned char pin,unsigned char Value)
{
     a26:	cf 92       	push	r12
     a28:	df 92       	push	r13
     a2a:	ef 92       	push	r14
     a2c:	ff 92       	push	r15
     a2e:	0f 93       	push	r16
     a30:	1f 93       	push	r17
     a32:	cf 93       	push	r28
     a34:	df 93       	push	r29
     a36:	08 2f       	mov	r16, r24
     a38:	16 2f       	mov	r17, r22

	if (pin<=4)
     a3a:	65 30       	cpi	r22, 0x05	; 5
     a3c:	28 f5       	brcc	.+74     	; 0xa88 <DIO_vWrite_nibble+0x62>
	{
		unsigned char n=0;
		unsigned char g=pin+4;
     a3e:	86 2f       	mov	r24, r22
     a40:	8c 5f       	subi	r24, 0xFC	; 252
		for (;pin<g;pin++,n++)
     a42:	68 17       	cp	r22, r24
     a44:	08 f5       	brcc	.+66     	; 0xa88 <DIO_vWrite_nibble+0x62>
     a46:	c0 e0       	ldi	r28, 0x00	; 0
     a48:	d0 e0       	ldi	r29, 0x00	; 0
		{
			DIO_vWrite_pin(PORT,pin,READ_BIT(Value,n));
     a4a:	ee 24       	eor	r14, r14
     a4c:	ff 24       	eor	r15, r15
     a4e:	e3 94       	inc	r14
     a50:	c4 2e       	mov	r12, r20
     a52:	dd 24       	eor	r13, r13
		}
	}
}


void DIO_vWrite_nibble (unsigned char PORT,unsigned char pin,unsigned char Value)
     a54:	6c 2f       	mov	r22, r28
     a56:	61 0f       	add	r22, r17
	{
		unsigned char n=0;
		unsigned char g=pin+4;
		for (;pin<g;pin++,n++)
		{
			DIO_vWrite_pin(PORT,pin,READ_BIT(Value,n));
     a58:	c7 01       	movw	r24, r14
     a5a:	0c 2e       	mov	r0, r28
     a5c:	02 c0       	rjmp	.+4      	; 0xa62 <DIO_vWrite_nibble+0x3c>
     a5e:	88 0f       	add	r24, r24
     a60:	99 1f       	adc	r25, r25
     a62:	0a 94       	dec	r0
     a64:	e2 f7       	brpl	.-8      	; 0xa5e <DIO_vWrite_nibble+0x38>
     a66:	8c 21       	and	r24, r12
     a68:	9d 21       	and	r25, r13
     a6a:	9c 01       	movw	r18, r24
     a6c:	0c 2e       	mov	r0, r28
     a6e:	02 c0       	rjmp	.+4      	; 0xa74 <DIO_vWrite_nibble+0x4e>
     a70:	35 95       	asr	r19
     a72:	27 95       	ror	r18
     a74:	0a 94       	dec	r0
     a76:	e2 f7       	brpl	.-8      	; 0xa70 <DIO_vWrite_nibble+0x4a>
     a78:	a9 01       	movw	r20, r18
     a7a:	80 2f       	mov	r24, r16
     a7c:	0e 94 b9 02 	call	0x572	; 0x572 <DIO_vWrite_pin>
     a80:	21 96       	adiw	r28, 0x01	; 1

	if (pin<=4)
	{
		unsigned char n=0;
		unsigned char g=pin+4;
		for (;pin<g;pin++,n++)
     a82:	c4 30       	cpi	r28, 0x04	; 4
     a84:	d1 05       	cpc	r29, r1
     a86:	31 f7       	brne	.-52     	; 0xa54 <DIO_vWrite_nibble+0x2e>
		{
			DIO_vWrite_pin(PORT,pin,READ_BIT(Value,n));
		}
	}
	
}
     a88:	df 91       	pop	r29
     a8a:	cf 91       	pop	r28
     a8c:	1f 91       	pop	r17
     a8e:	0f 91       	pop	r16
     a90:	ff 90       	pop	r15
     a92:	ef 90       	pop	r14
     a94:	df 90       	pop	r13
     a96:	cf 90       	pop	r12
     a98:	08 95       	ret

00000a9a <Keypad_vInit>:
#include "DIO.h"
#include "Keypad_Config.h"

void Keypad_vInit(void)
{ 
	DIO_vSet_pin(KEYPAD_CONNECTED_PORT,0,1);
     a9a:	84 e6       	ldi	r24, 0x64	; 100
     a9c:	60 e0       	ldi	r22, 0x00	; 0
     a9e:	41 e0       	ldi	r20, 0x01	; 1
     aa0:	0e 94 28 02 	call	0x450	; 0x450 <DIO_vSet_pin>
	DIO_vSet_pin(KEYPAD_CONNECTED_PORT,1,1);
     aa4:	84 e6       	ldi	r24, 0x64	; 100
     aa6:	61 e0       	ldi	r22, 0x01	; 1
     aa8:	41 e0       	ldi	r20, 0x01	; 1
     aaa:	0e 94 28 02 	call	0x450	; 0x450 <DIO_vSet_pin>
	DIO_vSet_pin(KEYPAD_CONNECTED_PORT,2,1);
     aae:	84 e6       	ldi	r24, 0x64	; 100
     ab0:	62 e0       	ldi	r22, 0x02	; 2
     ab2:	41 e0       	ldi	r20, 0x01	; 1
     ab4:	0e 94 28 02 	call	0x450	; 0x450 <DIO_vSet_pin>
	DIO_vSet_pin(KEYPAD_CONNECTED_PORT,3,1);
     ab8:	84 e6       	ldi	r24, 0x64	; 100
     aba:	63 e0       	ldi	r22, 0x03	; 3
     abc:	41 e0       	ldi	r20, 0x01	; 1
     abe:	0e 94 28 02 	call	0x450	; 0x450 <DIO_vSet_pin>
	DIO_vSet_pin(KEYPAD_CONNECTED_PORT,4,0);
     ac2:	84 e6       	ldi	r24, 0x64	; 100
     ac4:	64 e0       	ldi	r22, 0x04	; 4
     ac6:	40 e0       	ldi	r20, 0x00	; 0
     ac8:	0e 94 28 02 	call	0x450	; 0x450 <DIO_vSet_pin>
	DIO_vSet_pin(KEYPAD_CONNECTED_PORT,5,0);
     acc:	84 e6       	ldi	r24, 0x64	; 100
     ace:	65 e0       	ldi	r22, 0x05	; 5
     ad0:	40 e0       	ldi	r20, 0x00	; 0
     ad2:	0e 94 28 02 	call	0x450	; 0x450 <DIO_vSet_pin>
	DIO_vSet_pin(KEYPAD_CONNECTED_PORT,6,0);
     ad6:	84 e6       	ldi	r24, 0x64	; 100
     ad8:	66 e0       	ldi	r22, 0x06	; 6
     ada:	40 e0       	ldi	r20, 0x00	; 0
     adc:	0e 94 28 02 	call	0x450	; 0x450 <DIO_vSet_pin>
	DIO_vSet_pin(KEYPAD_CONNECTED_PORT,7,0);
     ae0:	84 e6       	ldi	r24, 0x64	; 100
     ae2:	67 e0       	ldi	r22, 0x07	; 7
     ae4:	40 e0       	ldi	r20, 0x00	; 0
     ae6:	0e 94 28 02 	call	0x450	; 0x450 <DIO_vSet_pin>
	DIO_vInternalpullup(KEYPAD_CONNECTED_PORT,INPUT_STARTING_PIN,1);
     aea:	84 e6       	ldi	r24, 0x64	; 100
     aec:	64 e0       	ldi	r22, 0x04	; 4
     aee:	41 e0       	ldi	r20, 0x01	; 1
     af0:	0e 94 82 04 	call	0x904	; 0x904 <DIO_vInternalpullup>
	DIO_vInternalpullup(KEYPAD_CONNECTED_PORT,INPUT_STARTING_PIN+1,1);
     af4:	84 e6       	ldi	r24, 0x64	; 100
     af6:	65 e0       	ldi	r22, 0x05	; 5
     af8:	41 e0       	ldi	r20, 0x01	; 1
     afa:	0e 94 82 04 	call	0x904	; 0x904 <DIO_vInternalpullup>
	DIO_vInternalpullup(KEYPAD_CONNECTED_PORT,INPUT_STARTING_PIN+2,1);
     afe:	84 e6       	ldi	r24, 0x64	; 100
     b00:	66 e0       	ldi	r22, 0x06	; 6
     b02:	41 e0       	ldi	r20, 0x01	; 1
     b04:	0e 94 82 04 	call	0x904	; 0x904 <DIO_vInternalpullup>
	DIO_vInternalpullup(KEYPAD_CONNECTED_PORT,INPUT_STARTING_PIN+3,1);
     b08:	84 e6       	ldi	r24, 0x64	; 100
     b0a:	67 e0       	ldi	r22, 0x07	; 7
     b0c:	41 e0       	ldi	r20, 0x01	; 1
     b0e:	0e 94 82 04 	call	0x904	; 0x904 <DIO_vInternalpullup>
}
     b12:	08 95       	ret

00000b14 <Keypad_uRead>:

unsigned char Keypad_uRead(void)
{
     b14:	0f 93       	push	r16
     b16:	1f 93       	push	r17
     b18:	cf 93       	push	r28
     b1a:	df 93       	push	r29
     b1c:	cd b7       	in	r28, 0x3d	; 61
     b1e:	de b7       	in	r29, 0x3e	; 62
     b20:	60 97       	sbiw	r28, 0x10	; 16
     b22:	0f b6       	in	r0, 0x3f	; 63
     b24:	f8 94       	cli
     b26:	de bf       	out	0x3e, r29	; 62
     b28:	0f be       	out	0x3f, r0	; 63
     b2a:	cd bf       	out	0x3d, r28	; 61
	unsigned char arr[4][4]={{'7','8','9','/'},{'4','5','6','*'},{'1','2','3','-'},{'A','0','=','+'}};
     b2c:	de 01       	movw	r26, r28
     b2e:	11 96       	adiw	r26, 0x01	; 1
     b30:	e0 e6       	ldi	r30, 0x60	; 96
     b32:	f0 e0       	ldi	r31, 0x00	; 0
     b34:	80 e1       	ldi	r24, 0x10	; 16
     b36:	01 90       	ld	r0, Z+
     b38:	0d 92       	st	X+, r0
     b3a:	81 50       	subi	r24, 0x01	; 1
     b3c:	e1 f7       	brne	.-8      	; 0xb36 <Keypad_uRead+0x22>
	unsigned char row=0,col=0;
	unsigned char x=0,return_valu=0xff;
	for (row=OUTPUT_STARTING_PIN;row<(OUTPUT_STARTING_PIN+4);row++)
     b3e:	00 e0       	ldi	r16, 0x00	; 0
	{
		DIO_vWrite_nibble(KEYPAD_CONNECTED_PORT,OUTPUT_STARTING_PIN,0xf);
     b40:	84 e6       	ldi	r24, 0x64	; 100
     b42:	60 e0       	ldi	r22, 0x00	; 0
     b44:	4f e0       	ldi	r20, 0x0F	; 15
     b46:	0e 94 13 05 	call	0xa26	; 0xa26 <DIO_vWrite_nibble>
		DIO_vWrite_pin(KEYPAD_CONNECTED_PORT,row,0);
     b4a:	84 e6       	ldi	r24, 0x64	; 100
     b4c:	60 2f       	mov	r22, r16
     b4e:	40 e0       	ldi	r20, 0x00	; 0
     b50:	0e 94 b9 02 	call	0x572	; 0x572 <DIO_vWrite_pin>
		for (col=0;col<4;col++)
     b54:	10 e0       	ldi	r17, 0x00	; 0
		{
			x=DIO_uRead_pin(KEYPAD_CONNECTED_PORT,INPUT_STARTING_PIN+col);
     b56:	61 2f       	mov	r22, r17
     b58:	6c 5f       	subi	r22, 0xFC	; 252
     b5a:	84 e6       	ldi	r24, 0x64	; 100
     b5c:	0e 94 4a 03 	call	0x694	; 0x694 <DIO_uRead_pin>
			if (x==0)
     b60:	88 23       	and	r24, r24
     b62:	61 f4       	brne	.+24     	; 0xb7c <Keypad_uRead+0x68>
			{
				return_valu=arr[row][col];
     b64:	e0 2f       	mov	r30, r16
     b66:	f0 e0       	ldi	r31, 0x00	; 0
     b68:	ee 0f       	add	r30, r30
     b6a:	ff 1f       	adc	r31, r31
     b6c:	ee 0f       	add	r30, r30
     b6e:	ff 1f       	adc	r31, r31
     b70:	e1 0f       	add	r30, r17
     b72:	f1 1d       	adc	r31, r1
     b74:	ec 0f       	add	r30, r28
     b76:	fd 1f       	adc	r31, r29
     b78:	81 81       	ldd	r24, Z+1	; 0x01
     b7a:	04 c0       	rjmp	.+8      	; 0xb84 <Keypad_uRead+0x70>
	unsigned char x=0,return_valu=0xff;
	for (row=OUTPUT_STARTING_PIN;row<(OUTPUT_STARTING_PIN+4);row++)
	{
		DIO_vWrite_nibble(KEYPAD_CONNECTED_PORT,OUTPUT_STARTING_PIN,0xf);
		DIO_vWrite_pin(KEYPAD_CONNECTED_PORT,row,0);
		for (col=0;col<4;col++)
     b7c:	1f 5f       	subi	r17, 0xFF	; 255
     b7e:	14 30       	cpi	r17, 0x04	; 4
     b80:	51 f7       	brne	.-44     	; 0xb56 <Keypad_uRead+0x42>
     b82:	0b c0       	rjmp	.+22     	; 0xb9a <Keypad_uRead+0x86>
		{
			break;
		}
	}
	return return_valu;
}
     b84:	60 96       	adiw	r28, 0x10	; 16
     b86:	0f b6       	in	r0, 0x3f	; 63
     b88:	f8 94       	cli
     b8a:	de bf       	out	0x3e, r29	; 62
     b8c:	0f be       	out	0x3f, r0	; 63
     b8e:	cd bf       	out	0x3d, r28	; 61
     b90:	df 91       	pop	r29
     b92:	cf 91       	pop	r28
     b94:	1f 91       	pop	r17
     b96:	0f 91       	pop	r16
     b98:	08 95       	ret
unsigned char Keypad_uRead(void)
{
	unsigned char arr[4][4]={{'7','8','9','/'},{'4','5','6','*'},{'1','2','3','-'},{'A','0','=','+'}};
	unsigned char row=0,col=0;
	unsigned char x=0,return_valu=0xff;
	for (row=OUTPUT_STARTING_PIN;row<(OUTPUT_STARTING_PIN+4);row++)
     b9a:	0f 5f       	subi	r16, 0xFF	; 255
     b9c:	04 30       	cpi	r16, 0x04	; 4
     b9e:	81 f6       	brne	.-96     	; 0xb40 <Keypad_uRead+0x2c>
     ba0:	8f ef       	ldi	r24, 0xFF	; 255
     ba2:	f0 cf       	rjmp	.-32     	; 0xb84 <Keypad_uRead+0x70>

00000ba4 <Enable_Pulse>:
#include "util/delay.h"
static void Enable_Pulse (void);

static void Enable_Pulse (void)
{
	DIO_vWrite_pin(CONTROL_PORT,ENABLE_PIN,1);
     ba4:	82 e4       	ldi	r24, 0x42	; 66
     ba6:	61 e0       	ldi	r22, 0x01	; 1
     ba8:	41 e0       	ldi	r20, 0x01	; 1
     baa:	0e 94 b9 02 	call	0x572	; 0x572 <DIO_vWrite_pin>
	#else
		//round up by default
		__ticks_dc = (uint32_t)(ceil(fabs(__tmp)));
	#endif

	__builtin_avr_delay_cycles(__ticks_dc);
     bae:	87 e8       	ldi	r24, 0x87	; 135
     bb0:	93 e1       	ldi	r25, 0x13	; 19
     bb2:	01 97       	sbiw	r24, 0x01	; 1
     bb4:	f1 f7       	brne	.-4      	; 0xbb2 <Enable_Pulse+0xe>
     bb6:	00 c0       	rjmp	.+0      	; 0xbb8 <Enable_Pulse+0x14>
     bb8:	00 00       	nop
	_delay_ms(2.5);
	DIO_vWrite_pin(CONTROL_PORT,ENABLE_PIN,0);
     bba:	82 e4       	ldi	r24, 0x42	; 66
     bbc:	61 e0       	ldi	r22, 0x01	; 1
     bbe:	40 e0       	ldi	r20, 0x00	; 0
     bc0:	0e 94 b9 02 	call	0x572	; 0x572 <DIO_vWrite_pin>
     bc4:	87 e8       	ldi	r24, 0x87	; 135
     bc6:	93 e1       	ldi	r25, 0x13	; 19
     bc8:	01 97       	sbiw	r24, 0x01	; 1
     bca:	f1 f7       	brne	.-4      	; 0xbc8 <Enable_Pulse+0x24>
     bcc:	00 c0       	rjmp	.+0      	; 0xbce <Enable_Pulse+0x2a>
     bce:	00 00       	nop
	_delay_ms(2.5);
}
     bd0:	08 95       	ret

00000bd2 <LCD_vSendChar>:

void LCD_vSendChar (unsigned char data)
{
     bd2:	cf 93       	push	r28
     bd4:	c8 2f       	mov	r28, r24
	DIO_vWrite_pin(CONTROL_PORT,RW_PIN,0);
	DIO_vWrite_pin(CONTROL_PORT,RS_PIN,1);
	DIO_vWrite_port(DATA_PORT,data);
	Enable_Pulse();
	#elif defined four_bit_mode
	DIO_vWrite_pin(CONTROL_PORT,RW_PIN,0);
     bd6:	82 e4       	ldi	r24, 0x42	; 66
     bd8:	62 e0       	ldi	r22, 0x02	; 2
     bda:	40 e0       	ldi	r20, 0x00	; 0
     bdc:	0e 94 b9 02 	call	0x572	; 0x572 <DIO_vWrite_pin>
	DIO_vWrite_pin(CONTROL_PORT,RS_PIN,1);
     be0:	82 e4       	ldi	r24, 0x42	; 66
     be2:	60 e0       	ldi	r22, 0x00	; 0
     be4:	41 e0       	ldi	r20, 0x01	; 1
     be6:	0e 94 b9 02 	call	0x572	; 0x572 <DIO_vWrite_pin>
	DIO_vWrite_nibble(DATA_PORT,FOUR_BIT_STARTING_PIN,data>>4);
     bea:	4c 2f       	mov	r20, r28
     bec:	42 95       	swap	r20
     bee:	4f 70       	andi	r20, 0x0F	; 15
     bf0:	81 e4       	ldi	r24, 0x41	; 65
     bf2:	64 e0       	ldi	r22, 0x04	; 4
     bf4:	0e 94 13 05 	call	0xa26	; 0xa26 <DIO_vWrite_nibble>
	Enable_Pulse();
     bf8:	0e 94 d2 05 	call	0xba4	; 0xba4 <Enable_Pulse>
	DIO_vWrite_nibble(DATA_PORT,FOUR_BIT_STARTING_PIN,data);
     bfc:	81 e4       	ldi	r24, 0x41	; 65
     bfe:	64 e0       	ldi	r22, 0x04	; 4
     c00:	4c 2f       	mov	r20, r28
     c02:	0e 94 13 05 	call	0xa26	; 0xa26 <DIO_vWrite_nibble>
	Enable_Pulse();
     c06:	0e 94 d2 05 	call	0xba4	; 0xba4 <Enable_Pulse>
	#endif
}
     c0a:	cf 91       	pop	r28
     c0c:	08 95       	ret

00000c0e <LCD_vSendCmd>:

void LCD_vSendCmd (unsigned char cmd)
{
     c0e:	cf 93       	push	r28
     c10:	c8 2f       	mov	r28, r24
	DIO_vWrite_pin(CONTROL_PORT,RS_PIN,0);
	DIO_vWrite_port(DATA_PORT,cmd);
	Enable_Pulse();
	_delay_ms(2);
	#elif defined four_bit_mode
	DIO_vWrite_pin(CONTROL_PORT,RW_PIN,0);
     c12:	82 e4       	ldi	r24, 0x42	; 66
     c14:	62 e0       	ldi	r22, 0x02	; 2
     c16:	40 e0       	ldi	r20, 0x00	; 0
     c18:	0e 94 b9 02 	call	0x572	; 0x572 <DIO_vWrite_pin>
	DIO_vWrite_pin(CONTROL_PORT,RS_PIN,0);
     c1c:	82 e4       	ldi	r24, 0x42	; 66
     c1e:	60 e0       	ldi	r22, 0x00	; 0
     c20:	40 e0       	ldi	r20, 0x00	; 0
     c22:	0e 94 b9 02 	call	0x572	; 0x572 <DIO_vWrite_pin>
	DIO_vWrite_nibble(DATA_PORT,FOUR_BIT_STARTING_PIN,cmd>>4);
     c26:	4c 2f       	mov	r20, r28
     c28:	42 95       	swap	r20
     c2a:	4f 70       	andi	r20, 0x0F	; 15
     c2c:	81 e4       	ldi	r24, 0x41	; 65
     c2e:	64 e0       	ldi	r22, 0x04	; 4
     c30:	0e 94 13 05 	call	0xa26	; 0xa26 <DIO_vWrite_nibble>
	Enable_Pulse();
     c34:	0e 94 d2 05 	call	0xba4	; 0xba4 <Enable_Pulse>
	DIO_vWrite_nibble(DATA_PORT,FOUR_BIT_STARTING_PIN,cmd);
     c38:	81 e4       	ldi	r24, 0x41	; 65
     c3a:	64 e0       	ldi	r22, 0x04	; 4
     c3c:	4c 2f       	mov	r20, r28
     c3e:	0e 94 13 05 	call	0xa26	; 0xa26 <DIO_vWrite_nibble>
	Enable_Pulse();
     c42:	0e 94 d2 05 	call	0xba4	; 0xba4 <Enable_Pulse>
     c46:	8f e9       	ldi	r24, 0x9F	; 159
     c48:	9f e0       	ldi	r25, 0x0F	; 15
     c4a:	01 97       	sbiw	r24, 0x01	; 1
     c4c:	f1 f7       	brne	.-4      	; 0xc4a <LCD_vSendCmd+0x3c>
     c4e:	00 c0       	rjmp	.+0      	; 0xc50 <LCD_vSendCmd+0x42>
     c50:	00 00       	nop
	_delay_ms(2);
	#endif
}
     c52:	cf 91       	pop	r28
     c54:	08 95       	ret

00000c56 <LCD_vSendString>:

void LCD_vSendString (const  char *data)
{
     c56:	cf 93       	push	r28
     c58:	df 93       	push	r29
     c5a:	ec 01       	movw	r28, r24
	while ((*data)!=0)
     c5c:	88 81       	ld	r24, Y
     c5e:	88 23       	and	r24, r24
     c60:	31 f0       	breq	.+12     	; 0xc6e <LCD_vSendString+0x18>
	Enable_Pulse();
	_delay_ms(2);
	#endif
}

void LCD_vSendString (const  char *data)
     c62:	21 96       	adiw	r28, 0x01	; 1
{
	while ((*data)!=0)
	{
		LCD_vSendChar(*data);
     c64:	0e 94 e9 05 	call	0xbd2	; 0xbd2 <LCD_vSendChar>
	#endif
}

void LCD_vSendString (const  char *data)
{
	while ((*data)!=0)
     c68:	89 91       	ld	r24, Y+
     c6a:	88 23       	and	r24, r24
     c6c:	d9 f7       	brne	.-10     	; 0xc64 <LCD_vSendString+0xe>
	{
		LCD_vSendChar(*data);
		data++;
	}
}
     c6e:	df 91       	pop	r29
     c70:	cf 91       	pop	r28
     c72:	08 95       	ret

00000c74 <LCD_vMoveCursor>:

void LCD_vMoveCursor (unsigned char Line,unsigned char Column)
{
	unsigned address_cmd=0x80;
	if ((Line==0)||(Line>2)||(Column==0)||(Column>16))
     c74:	98 2f       	mov	r25, r24
     c76:	91 50       	subi	r25, 0x01	; 1
     c78:	92 30       	cpi	r25, 0x02	; 2
     c7a:	80 f4       	brcc	.+32     	; 0xc9c <LCD_vMoveCursor+0x28>
     c7c:	66 23       	and	r22, r22
     c7e:	89 f0       	breq	.+34     	; 0xca2 <LCD_vMoveCursor+0x2e>
     c80:	61 31       	cpi	r22, 0x11	; 17
     c82:	90 f4       	brcc	.+36     	; 0xca8 <LCD_vMoveCursor+0x34>
	{
		address_cmd=0x80;
	}
	else if (Line==1)
     c84:	81 30       	cpi	r24, 0x01	; 1
     c86:	29 f4       	brne	.+10     	; 0xc92 <LCD_vMoveCursor+0x1e>
	{
		address_cmd=0x80+Column-1;
     c88:	86 2f       	mov	r24, r22
     c8a:	90 e0       	ldi	r25, 0x00	; 0
     c8c:	81 58       	subi	r24, 0x81	; 129
     c8e:	9f 4f       	sbci	r25, 0xFF	; 255
     c90:	0d c0       	rjmp	.+26     	; 0xcac <LCD_vMoveCursor+0x38>
	}
	else 
	{
		address_cmd=0xc0+Column-1;
     c92:	86 2f       	mov	r24, r22
     c94:	90 e0       	ldi	r25, 0x00	; 0
     c96:	81 54       	subi	r24, 0x41	; 65
     c98:	9f 4f       	sbci	r25, 0xFF	; 255
     c9a:	08 c0       	rjmp	.+16     	; 0xcac <LCD_vMoveCursor+0x38>
void LCD_vMoveCursor (unsigned char Line,unsigned char Column)
{
	unsigned address_cmd=0x80;
	if ((Line==0)||(Line>2)||(Column==0)||(Column>16))
	{
		address_cmd=0x80;
     c9c:	80 e8       	ldi	r24, 0x80	; 128
     c9e:	90 e0       	ldi	r25, 0x00	; 0
     ca0:	05 c0       	rjmp	.+10     	; 0xcac <LCD_vMoveCursor+0x38>
     ca2:	80 e8       	ldi	r24, 0x80	; 128
     ca4:	90 e0       	ldi	r25, 0x00	; 0
     ca6:	02 c0       	rjmp	.+4      	; 0xcac <LCD_vMoveCursor+0x38>
     ca8:	80 e8       	ldi	r24, 0x80	; 128
     caa:	90 e0       	ldi	r25, 0x00	; 0
	}
	else 
	{
		address_cmd=0xc0+Column-1;
	}
	LCD_vSendCmd(address_cmd);
     cac:	0e 94 07 06 	call	0xc0e	; 0xc0e <LCD_vSendCmd>
}
     cb0:	08 95       	ret

00000cb2 <LCD_vClrscreen>:
	#endif
}

void LCD_vClrscreen(void)
{
	LCD_vSendCmd(CLEAR_LCD_SCREEN);
     cb2:	81 e0       	ldi	r24, 0x01	; 1
     cb4:	0e 94 07 06 	call	0xc0e	; 0xc0e <LCD_vSendCmd>
     cb8:	8f e1       	ldi	r24, 0x1F	; 31
     cba:	9e e4       	ldi	r25, 0x4E	; 78
     cbc:	01 97       	sbiw	r24, 0x01	; 1
     cbe:	f1 f7       	brne	.-4      	; 0xcbc <LCD_vClrscreen+0xa>
     cc0:	00 c0       	rjmp	.+0      	; 0xcc2 <LCD_vClrscreen+0x10>
     cc2:	00 00       	nop
	_delay_ms(10);
}
     cc4:	08 95       	ret

00000cc6 <LCD_vReturnHome>:

void LCD_vReturnHome(void)
{
	LCD_vSendCmd(RETURN_HOME_LCD);
     cc6:	82 e0       	ldi	r24, 0x02	; 2
     cc8:	0e 94 07 06 	call	0xc0e	; 0xc0e <LCD_vSendCmd>
     ccc:	8f e1       	ldi	r24, 0x1F	; 31
     cce:	9e e4       	ldi	r25, 0x4E	; 78
     cd0:	01 97       	sbiw	r24, 0x01	; 1
     cd2:	f1 f7       	brne	.-4      	; 0xcd0 <LCD_vReturnHome+0xa>
     cd4:	00 c0       	rjmp	.+0      	; 0xcd6 <LCD_vReturnHome+0x10>
     cd6:	00 00       	nop
	_delay_ms(10);
     cd8:	08 95       	ret

00000cda <LCD_vInit>:
	}
	LCD_vSendCmd(address_cmd);
}

void LCD_vInit (void)
{
     cda:	cf 93       	push	r28
     cdc:	8f e7       	ldi	r24, 0x7F	; 127
     cde:	9a e1       	ldi	r25, 0x1A	; 26
     ce0:	a6 e0       	ldi	r26, 0x06	; 6
     ce2:	81 50       	subi	r24, 0x01	; 1
     ce4:	90 40       	sbci	r25, 0x00	; 0
     ce6:	a0 40       	sbci	r26, 0x00	; 0
     ce8:	e1 f7       	brne	.-8      	; 0xce2 <LCD_vInit+0x8>
     cea:	00 c0       	rjmp	.+0      	; 0xcec <LCD_vInit+0x12>
     cec:	00 00       	nop
	LCD_vClrscreen();
	LCD_vSendCmd(SHIFT_CURSOR_TO_RIGHT);
	#elif defined four_bit_mode
	_delay_ms(250);
	unsigned char i=0;
	unsigned char pin_req=FOUR_BIT_STARTING_PIN;
     cee:	c4 e0       	ldi	r28, 0x04	; 4
	for(;i<4;i++,pin_req++)
	{
		DIO_vSet_pin(DATA_PORT,pin_req,1);
     cf0:	81 e4       	ldi	r24, 0x41	; 65
     cf2:	6c 2f       	mov	r22, r28
     cf4:	41 e0       	ldi	r20, 0x01	; 1
     cf6:	0e 94 28 02 	call	0x450	; 0x450 <DIO_vSet_pin>
	LCD_vSendCmd(SHIFT_CURSOR_TO_RIGHT);
	#elif defined four_bit_mode
	_delay_ms(250);
	unsigned char i=0;
	unsigned char pin_req=FOUR_BIT_STARTING_PIN;
	for(;i<4;i++,pin_req++)
     cfa:	cf 5f       	subi	r28, 0xFF	; 255
     cfc:	c8 30       	cpi	r28, 0x08	; 8
     cfe:	c1 f7       	brne	.-16     	; 0xcf0 <LCD_vInit+0x16>
	{
		DIO_vSet_pin(DATA_PORT,pin_req,1);
	}
	DIO_vSet_pin(CONTROL_PORT,RW_PIN,1);
     d00:	82 e4       	ldi	r24, 0x42	; 66
     d02:	62 e0       	ldi	r22, 0x02	; 2
     d04:	41 e0       	ldi	r20, 0x01	; 1
     d06:	0e 94 28 02 	call	0x450	; 0x450 <DIO_vSet_pin>
	DIO_vSet_pin(CONTROL_PORT,RS_PIN,1);
     d0a:	82 e4       	ldi	r24, 0x42	; 66
     d0c:	60 e0       	ldi	r22, 0x00	; 0
     d0e:	41 e0       	ldi	r20, 0x01	; 1
     d10:	0e 94 28 02 	call	0x450	; 0x450 <DIO_vSet_pin>
	DIO_vSet_pin(CONTROL_PORT,ENABLE_PIN,1);
     d14:	82 e4       	ldi	r24, 0x42	; 66
     d16:	61 e0       	ldi	r22, 0x01	; 1
     d18:	41 e0       	ldi	r20, 0x01	; 1
     d1a:	0e 94 28 02 	call	0x450	; 0x450 <DIO_vSet_pin>
	LCD_vReturnHome();
     d1e:	0e 94 63 06 	call	0xcc6	; 0xcc6 <LCD_vReturnHome>
	LCD_vSendCmd(FOUR_BIT_CMD);
     d22:	88 e2       	ldi	r24, 0x28	; 40
     d24:	0e 94 07 06 	call	0xc0e	; 0xc0e <LCD_vSendCmd>
	LCD_vSendCmd(DISPLAY_ON_CURSOR_ON);
     d28:	8e e0       	ldi	r24, 0x0E	; 14
     d2a:	0e 94 07 06 	call	0xc0e	; 0xc0e <LCD_vSendCmd>
	LCD_vClrscreen();
     d2e:	0e 94 59 06 	call	0xcb2	; 0xcb2 <LCD_vClrscreen>
	LCD_vSendCmd(SHIFT_CURSOR_TO_RIGHT_WHILE_WRITING);
     d32:	86 e0       	ldi	r24, 0x06	; 6
     d34:	0e 94 07 06 	call	0xc0e	; 0xc0e <LCD_vSendCmd>
	#endif
}
     d38:	cf 91       	pop	r28
     d3a:	08 95       	ret

00000d3c <main>:
#define F_CPU 8000000LU
#include "util/delay.h"
#include "Cal.h"

int main(void)
{
     d3c:	cf 93       	push	r28
     d3e:	df 93       	push	r29
     d40:	cd b7       	in	r28, 0x3d	; 61
     d42:	de b7       	in	r29, 0x3e	; 62
     d44:	e2 97       	sbiw	r28, 0x32	; 50
     d46:	0f b6       	in	r0, 0x3f	; 63
     d48:	f8 94       	cli
     d4a:	de bf       	out	0x3e, r29	; 62
     d4c:	0f be       	out	0x3f, r0	; 63
     d4e:	cd bf       	out	0x3d, r28	; 61
	LCD_vInit();
     d50:	0e 94 6d 06 	call	0xcda	; 0xcda <LCD_vInit>
	Keypad_vInit();
     d54:	0e 94 4d 05 	call	0xa9a	; 0xa9a <Keypad_vInit>
	Buz_vInit('b',4);
     d58:	82 e6       	ldi	r24, 0x62	; 98
     d5a:	64 e0       	ldi	r22, 0x04	; 4
     d5c:	0e 94 49 00 	call	0x92	; 0x92 <Buz_vInit>
	unsigned char counter=0,i=0,x=0xff,Operator=0,Status=0,flag1=0,flag2=0,syntax_error=1,operation_flag=0,Ans_flag=0;
	unsigned long long Num_1=0,Num_2=0,n=0;
	volatile unsigned long long res=0,R;
     d60:	19 82       	std	Y+1, r1	; 0x01
     d62:	1a 82       	std	Y+2, r1	; 0x02
     d64:	1b 82       	std	Y+3, r1	; 0x03
     d66:	1c 82       	std	Y+4, r1	; 0x04
     d68:	1d 82       	std	Y+5, r1	; 0x05
     d6a:	1e 82       	std	Y+6, r1	; 0x06
     d6c:	1f 82       	std	Y+7, r1	; 0x07
     d6e:	18 86       	std	Y+8, r1	; 0x08
	unsigned char arr[16]={0};
     d70:	fe 01       	movw	r30, r28
     d72:	71 96       	adiw	r30, 0x11	; 17
     d74:	80 e1       	ldi	r24, 0x10	; 16
     d76:	df 01       	movw	r26, r30
     d78:	1d 92       	st	X+, r1
     d7a:	8a 95       	dec	r24
     d7c:	e9 f7       	brne	.-6      	; 0xd78 <main+0x3c>
	LCD_vSendString("Welcome");
     d7e:	80 e7       	ldi	r24, 0x70	; 112
     d80:	90 e0       	ldi	r25, 0x00	; 0
     d82:	0e 94 2b 06 	call	0xc56	; 0xc56 <LCD_vSendString>
	Buz_vTurnON('b',4);
     d86:	82 e6       	ldi	r24, 0x62	; 98
     d88:	64 e0       	ldi	r22, 0x04	; 4
     d8a:	0e 94 5a 00 	call	0xb4	; 0xb4 <Buz_vTurnON>
     d8e:	8f ef       	ldi	r24, 0xFF	; 255
     d90:	94 e3       	ldi	r25, 0x34	; 52
     d92:	ac e0       	ldi	r26, 0x0C	; 12
     d94:	81 50       	subi	r24, 0x01	; 1
     d96:	90 40       	sbci	r25, 0x00	; 0
     d98:	a0 40       	sbci	r26, 0x00	; 0
     d9a:	e1 f7       	brne	.-8      	; 0xd94 <main+0x58>
     d9c:	00 c0       	rjmp	.+0      	; 0xd9e <main+0x62>
     d9e:	00 00       	nop
	_delay_ms(500);
	LCD_vClrscreen();
     da0:	0e 94 59 06 	call	0xcb2	; 0xcb2 <LCD_vClrscreen>
	Buz_vTurnOFF('b',4);
     da4:	82 e6       	ldi	r24, 0x62	; 98
     da6:	64 e0       	ldi	r22, 0x04	; 4
     da8:	0e 94 6b 00 	call	0xd6	; 0xd6 <Buz_vTurnOFF>
{
	LCD_vInit();
	Keypad_vInit();
	Buz_vInit('b',4);
	unsigned char counter=0,i=0,x=0xff,Operator=0,Status=0,flag1=0,flag2=0,syntax_error=1,operation_flag=0,Ans_flag=0;
	unsigned long long Num_1=0,Num_2=0,n=0;
     dac:	1f a6       	lds	r17, 0xbf
     dae:	1f a2       	lds	r17, 0x9f
     db0:	18 a6       	lds	r17, 0xb8
     db2:	19 a6       	lds	r17, 0xb9
     db4:	1a a6       	lds	r17, 0xba
     db6:	1b a6       	lds	r17, 0xbb
     db8:	1c a6       	lds	r17, 0xbc
     dba:	1e a6       	lds	r17, 0xbe
     dbc:	1d a6       	lds	r17, 0xbd
     dbe:	1a a2       	lds	r17, 0x9a
     dc0:	1b a2       	lds	r17, 0x9b
     dc2:	1c a2       	lds	r17, 0x9c
     dc4:	1d a2       	lds	r17, 0x9d
     dc6:	1e a2       	lds	r17, 0x9e
     dc8:	22 24       	eor	r2, r2
     dca:	33 24       	eor	r3, r3
int main(void)
{
	LCD_vInit();
	Keypad_vInit();
	Buz_vInit('b',4);
	unsigned char counter=0,i=0,x=0xff,Operator=0,Status=0,flag1=0,flag2=0,syntax_error=1,operation_flag=0,Ans_flag=0;
     dcc:	55 24       	eor	r5, r5
     dce:	18 aa       	sts	0x98, r17
     dd0:	91 e0       	ldi	r25, 0x01	; 1
     dd2:	99 ab       	sts	0x59, r25
     dd4:	77 24       	eor	r7, r7
     dd6:	99 24       	eor	r9, r9
     dd8:	88 24       	eor	r8, r8
     dda:	19 a2       	lds	r17, 0x99
     ddc:	66 24       	eor	r6, r6
		if (x=='A' || Ans_flag==1 || Status==0)
		{
			LCD_vClrscreen();
			Num_1=0;
			Num_2=0;
			syntax_error=1;
     dde:	44 24       	eor	r4, r4
     de0:	43 94       	inc	r4
     de2:	03 c0       	rjmp	.+6      	; 0xdea <main+0xae>
		{
			Num_2=Num_uCreate(arr,counter);
			flag2=2;
			counter=0;
		}
		if ((flag1==2)&&(flag2==2))
     de4:	99 24       	eor	r9, r9
     de6:	68 94       	set
     de8:	91 f8       	bld	r9, 1
	_delay_ms(500);
	LCD_vClrscreen();
	Buz_vTurnOFF('b',4);
    while(1)
    {
		Buz_vTurnOFF('b',4);
     dea:	82 e6       	ldi	r24, 0x62	; 98
     dec:	64 e0       	ldi	r22, 0x04	; 4
     dee:	0e 94 6b 00 	call	0xd6	; 0xd6 <Buz_vTurnOFF>
		while((x=Keypad_uRead())==0xff);
     df2:	0e 94 8a 05 	call	0xb14	; 0xb14 <Keypad_uRead>
     df6:	8f 3f       	cpi	r24, 0xFF	; 255
     df8:	e1 f3       	breq	.-8      	; 0xdf2 <main+0xb6>
     dfa:	18 2f       	mov	r17, r24
     dfc:	8f ef       	ldi	r24, 0xFF	; 255
     dfe:	94 e3       	ldi	r25, 0x34	; 52
     e00:	ac e0       	ldi	r26, 0x0C	; 12
     e02:	81 50       	subi	r24, 0x01	; 1
     e04:	90 40       	sbci	r25, 0x00	; 0
     e06:	a0 40       	sbci	r26, 0x00	; 0
     e08:	e1 f7       	brne	.-8      	; 0xe02 <main+0xc6>
     e0a:	00 c0       	rjmp	.+0      	; 0xe0c <main+0xd0>
     e0c:	00 00       	nop
		_delay_ms(500);
		if (x=='A' || Ans_flag==1 || Status==0)
     e0e:	11 34       	cpi	r17, 0x41	; 65
     e10:	29 f0       	breq	.+10     	; 0xe1c <main+0xe0>
     e12:	91 e0       	ldi	r25, 0x01	; 1
     e14:	59 16       	cp	r5, r25
     e16:	11 f0       	breq	.+4      	; 0xe1c <main+0xe0>
     e18:	88 20       	and	r8, r8
     e1a:	01 f5       	brne	.+64     	; 0xe5c <main+0x120>
		{
			LCD_vClrscreen();
     e1c:	0e 94 59 06 	call	0xcb2	; 0xcb2 <LCD_vClrscreen>
			Operator=0;
			Status=0;
			flag1=0;
			Ans_flag=0;
			flag2=0;
			__Memset__(arr,0,16);	
     e20:	ce 01       	movw	r24, r28
     e22:	41 96       	adiw	r24, 0x11	; 17
     e24:	60 e0       	ldi	r22, 0x00	; 0
     e26:	40 e1       	ldi	r20, 0x10	; 16
     e28:	0e 94 1e 02 	call	0x43c	; 0x43c <__Memset__>
		_delay_ms(500);
		if (x=='A' || Ans_flag==1 || Status==0)
		{
			LCD_vClrscreen();
			Num_1=0;
			Num_2=0;
     e2c:	1f a6       	lds	r17, 0xbf
     e2e:	1f a2       	lds	r17, 0x9f
     e30:	18 a6       	lds	r17, 0xb8
     e32:	19 a6       	lds	r17, 0xb9
     e34:	1a a6       	lds	r17, 0xba
     e36:	1b a6       	lds	r17, 0xbb
     e38:	1c a6       	lds	r17, 0xbc
     e3a:	1e a6       	lds	r17, 0xbe
		while((x=Keypad_uRead())==0xff);
		_delay_ms(500);
		if (x=='A' || Ans_flag==1 || Status==0)
		{
			LCD_vClrscreen();
			Num_1=0;
     e3c:	1d a6       	lds	r17, 0xbd
     e3e:	1a a2       	lds	r17, 0x9a
     e40:	1b a2       	lds	r17, 0x9b
     e42:	1c a2       	lds	r17, 0x9c
     e44:	1d a2       	lds	r17, 0x9d
     e46:	1e a2       	lds	r17, 0x9e
     e48:	22 24       	eor	r2, r2
     e4a:	33 24       	eor	r3, r3
			operation_flag=0;
			counter=0;
			Operator=0;
			Status=0;
			flag1=0;
			Ans_flag=0;
     e4c:	55 24       	eor	r5, r5
		{
			LCD_vClrscreen();
			Num_1=0;
			Num_2=0;
			syntax_error=1;
			operation_flag=0;
     e4e:	18 aa       	sts	0x98, r17
		if (x=='A' || Ans_flag==1 || Status==0)
		{
			LCD_vClrscreen();
			Num_1=0;
			Num_2=0;
			syntax_error=1;
     e50:	49 aa       	sts	0x99, r20
			counter=0;
			Operator=0;
			Status=0;
			flag1=0;
			Ans_flag=0;
			flag2=0;
     e52:	77 24       	eor	r7, r7
			syntax_error=1;
			operation_flag=0;
			counter=0;
			Operator=0;
			Status=0;
			flag1=0;
     e54:	99 24       	eor	r9, r9
			Num_2=0;
			syntax_error=1;
			operation_flag=0;
			counter=0;
			Operator=0;
			Status=0;
     e56:	88 24       	eor	r8, r8
			Num_1=0;
			Num_2=0;
			syntax_error=1;
			operation_flag=0;
			counter=0;
			Operator=0;
     e58:	19 a2       	lds	r17, 0x99
			LCD_vClrscreen();
			Num_1=0;
			Num_2=0;
			syntax_error=1;
			operation_flag=0;
			counter=0;
     e5a:	66 24       	eor	r6, r6
			flag1=0;
			Ans_flag=0;
			flag2=0;
			__Memset__(arr,0,16);	
		}
		if (x >= '0' && x <= '9')
     e5c:	01 2f       	mov	r16, r17
     e5e:	00 53       	subi	r16, 0x30	; 48
     e60:	0a 30       	cpi	r16, 0x0A	; 10
     e62:	20 f5       	brcc	.+72     	; 0xeac <main+0x170>
		{
			Status=1;
			LCD_vSendChar(x);
     e64:	81 2f       	mov	r24, r17
     e66:	0e 94 e9 05 	call	0xbd2	; 0xbd2 <LCD_vSendChar>
			if ((flag1==0)&&(flag2==0))
     e6a:	99 20       	and	r9, r9
     e6c:	69 f4       	brne	.+26     	; 0xe88 <main+0x14c>
     e6e:	77 20       	and	r7, r7
     e70:	09 f0       	breq	.+2      	; 0xe74 <main+0x138>
     e72:	51 c1       	rjmp	.+674    	; 0x1116 <main+0x3da>
			{
				arr[counter]=x-48;
     e74:	e1 e1       	ldi	r30, 0x11	; 17
     e76:	f0 e0       	ldi	r31, 0x00	; 0
     e78:	ec 0f       	add	r30, r28
     e7a:	fd 1f       	adc	r31, r29
     e7c:	e6 0d       	add	r30, r6
     e7e:	f1 1d       	adc	r31, r1
     e80:	00 83       	st	Z, r16
				++counter;
     e82:	63 94       	inc	r6
			flag2=0;
			__Memset__(arr,0,16);	
		}
		if (x >= '0' && x <= '9')
		{
			Status=1;
     e84:	84 2c       	mov	r8, r4
			LCD_vSendChar(x);
			if ((flag1==0)&&(flag2==0))
			{
				arr[counter]=x-48;
				++counter;
     e86:	4a c1       	rjmp	.+660    	; 0x111c <main+0x3e0>
			}
			else if ((flag2==0)&&(flag1==2))
     e88:	77 20       	and	r7, r7
     e8a:	09 f0       	breq	.+2      	; 0xe8e <main+0x152>
     e8c:	24 c1       	rjmp	.+584    	; 0x10d6 <main+0x39a>
     e8e:	a2 e0       	ldi	r26, 0x02	; 2
     e90:	9a 16       	cp	r9, r26
     e92:	09 f0       	breq	.+2      	; 0xe96 <main+0x15a>
     e94:	22 c1       	rjmp	.+580    	; 0x10da <main+0x39e>
			{
				arr[counter]=x-48;
     e96:	e1 e1       	ldi	r30, 0x11	; 17
     e98:	f0 e0       	ldi	r31, 0x00	; 0
     e9a:	ec 0f       	add	r30, r28
     e9c:	fd 1f       	adc	r31, r29
     e9e:	e6 0d       	add	r30, r6
     ea0:	f1 1d       	adc	r31, r1
     ea2:	00 83       	st	Z, r16
				syntax_error=0;
				++counter;
     ea4:	63 94       	inc	r6
				++counter;
			}
			else if ((flag2==0)&&(flag1==2))
			{
				arr[counter]=x-48;
				syntax_error=0;
     ea6:	19 aa       	sts	0x99, r17
			flag2=0;
			__Memset__(arr,0,16);	
		}
		if (x >= '0' && x <= '9')
		{
			Status=1;
     ea8:	84 2c       	mov	r8, r4
     eaa:	38 c1       	rjmp	.+624    	; 0x111c <main+0x3e0>
				arr[counter]=x-48;
				syntax_error=0;
				++counter;
			}
		}
		else if (x=='*' && Status==1)
     eac:	1a 32       	cpi	r17, 0x2A	; 42
     eae:	49 f4       	brne	.+18     	; 0xec2 <main+0x186>
     eb0:	b1 e0       	ldi	r27, 0x01	; 1
     eb2:	8b 16       	cp	r8, r27
     eb4:	89 f4       	brne	.+34     	; 0xed8 <main+0x19c>
		{	
			operation_flag=1;
			Operator='*';
			flag1 =1;
			LCD_vSendChar(Operator);
     eb6:	8a e2       	ldi	r24, 0x2A	; 42
     eb8:	0e 94 e9 05 	call	0xbd2	; 0xbd2 <LCD_vSendChar>
			}
		}
		else if (x=='*' && Status==1)
		{	
			operation_flag=1;
			Operator='*';
     ebc:	fa e2       	ldi	r31, 0x2A	; 42
     ebe:	f9 a3       	lds	r31, 0x59
			flag1 =1;
			LCD_vSendChar(Operator);
     ec0:	2f c4       	rjmp	.+2142   	; 0x1720 <main+0x9e4>
		}
		else if (x=='/' && Status==1)
     ec2:	1f 32       	cpi	r17, 0x2F	; 47
     ec4:	49 f4       	brne	.+18     	; 0xed8 <main+0x19c>
     ec6:	21 e0       	ldi	r18, 0x01	; 1
     ec8:	82 16       	cp	r8, r18
     eca:	89 f4       	brne	.+34     	; 0xeee <main+0x1b2>
		{	
			operation_flag=1;
			Operator='/';
			flag1=1;
			LCD_vSendChar(Operator);
     ecc:	8f e2       	ldi	r24, 0x2F	; 47
     ece:	0e 94 e9 05 	call	0xbd2	; 0xbd2 <LCD_vSendChar>
			LCD_vSendChar(Operator);
		}
		else if (x=='/' && Status==1)
		{	
			operation_flag=1;
			Operator='/';
     ed2:	3f e2       	ldi	r19, 0x2F	; 47
     ed4:	39 a3       	lds	r19, 0x59
			flag1=1;
			LCD_vSendChar(Operator);
     ed6:	24 c4       	rjmp	.+2120   	; 0x1720 <main+0x9e4>
		}
		else if (x=='-' && Status==1)
     ed8:	1d 32       	cpi	r17, 0x2D	; 45
     eda:	49 f4       	brne	.+18     	; 0xeee <main+0x1b2>
     edc:	81 e0       	ldi	r24, 0x01	; 1
     ede:	88 16       	cp	r8, r24
     ee0:	91 f4       	brne	.+36     	; 0xf06 <main+0x1ca>
		{
			operation_flag=1;
			Operator='-';
			flag1=1;
			LCD_vSendChar(Operator);
     ee2:	8d e2       	ldi	r24, 0x2D	; 45
     ee4:	0e 94 e9 05 	call	0xbd2	; 0xbd2 <LCD_vSendChar>
			LCD_vSendChar(Operator);
		}
		else if (x=='-' && Status==1)
		{
			operation_flag=1;
			Operator='-';
     ee8:	9d e2       	ldi	r25, 0x2D	; 45
     eea:	99 a3       	lds	r25, 0x59
			flag1=1;
			LCD_vSendChar(Operator);
     eec:	19 c4       	rjmp	.+2098   	; 0x1720 <main+0x9e4>
		}
		else if (x=='+' && Status==1)
     eee:	1b 32       	cpi	r17, 0x2B	; 43
     ef0:	51 f4       	brne	.+20     	; 0xf06 <main+0x1ca>
     ef2:	a1 e0       	ldi	r26, 0x01	; 1
     ef4:	8a 16       	cp	r8, r26
     ef6:	09 f0       	breq	.+2      	; 0xefa <main+0x1be>
     ef8:	f1 c0       	rjmp	.+482    	; 0x10dc <main+0x3a0>
		{
			operation_flag=1;
			Operator='+';
			flag1=1;
			LCD_vSendChar(Operator);
     efa:	8b e2       	ldi	r24, 0x2B	; 43
     efc:	0e 94 e9 05 	call	0xbd2	; 0xbd2 <LCD_vSendChar>
			LCD_vSendChar(Operator);
		}
		else if (x=='+' && Status==1)
		{
			operation_flag=1;
			Operator='+';
     f00:	bb e2       	ldi	r27, 0x2B	; 43
     f02:	b9 a3       	lds	r27, 0x59
			flag1=1;
			LCD_vSendChar(Operator);
     f04:	0d c4       	rjmp	.+2074   	; 0x1720 <main+0x9e4>
		}
		else if (x=='=' && Status==1)
     f06:	1d 33       	cpi	r17, 0x3D	; 61
     f08:	09 f0       	breq	.+2      	; 0xf0c <main+0x1d0>
     f0a:	e8 c0       	rjmp	.+464    	; 0x10dc <main+0x3a0>
     f0c:	f1 e0       	ldi	r31, 0x01	; 1
     f0e:	8f 16       	cp	r8, r31
     f10:	09 f0       	breq	.+2      	; 0xf14 <main+0x1d8>
     f12:	e4 c0       	rjmp	.+456    	; 0x10dc <main+0x3a0>
		{
			Status=0;
			Ans_flag=1;
			if (syntax_error==1 && operation_flag==1)
     f14:	29 a9       	sts	0x49, r18
     f16:	21 30       	cpi	r18, 0x01	; 1
     f18:	09 f0       	breq	.+2      	; 0xf1c <main+0x1e0>
     f1a:	d6 c0       	rjmp	.+428    	; 0x10c8 <main+0x38c>
     f1c:	38 a9       	sts	0x48, r19
     f1e:	31 30       	cpi	r19, 0x01	; 1
     f20:	91 f4       	brne	.+36     	; 0xf46 <main+0x20a>
			{
				LCD_vClrscreen();
     f22:	0e 94 59 06 	call	0xcb2	; 0xcb2 <LCD_vClrscreen>
				LCD_vSendString("Syntax Error");
     f26:	88 e7       	ldi	r24, 0x78	; 120
     f28:	90 e0       	ldi	r25, 0x00	; 0
     f2a:	0e 94 2b 06 	call	0xc56	; 0xc56 <LCD_vSendString>
     f2e:	8f ef       	ldi	r24, 0xFF	; 255
     f30:	99 e6       	ldi	r25, 0x69	; 105
     f32:	a8 e1       	ldi	r26, 0x18	; 24
     f34:	81 50       	subi	r24, 0x01	; 1
     f36:	90 40       	sbci	r25, 0x00	; 0
     f38:	a0 40       	sbci	r26, 0x00	; 0
     f3a:	e1 f7       	brne	.-8      	; 0xf34 <main+0x1f8>
     f3c:	00 c0       	rjmp	.+0      	; 0xf3e <main+0x202>
     f3e:	00 00       	nop
			LCD_vSendChar(Operator);
		}
		else if (x=='=' && Status==1)
		{
			Status=0;
			Ans_flag=1;
     f40:	54 2c       	mov	r5, r4
			flag1=1;
			LCD_vSendChar(Operator);
		}
		else if (x=='=' && Status==1)
		{
			Status=0;
     f42:	88 24       	eor	r8, r8
     f44:	cb c0       	rjmp	.+406    	; 0x10dc <main+0x3a0>
			{
				LCD_vClrscreen();
				LCD_vSendString("Syntax Error");
				_delay_ms(1000);
			}
			else if (syntax_error==1 && operation_flag==0)
     f46:	98 a9       	sts	0x48, r25
     f48:	99 23       	and	r25, r25
     f4a:	09 f0       	breq	.+2      	; 0xf4e <main+0x212>
     f4c:	bd c0       	rjmp	.+378    	; 0x10c8 <main+0x38c>
			{
				LCD_vSendChar('=');
     f4e:	8d e3       	ldi	r24, 0x3D	; 61
     f50:	0e 94 e9 05 	call	0xbd2	; 0xbd2 <LCD_vSendChar>
				Num_1=Num_uCreate(arr,counter);
     f54:	ce 01       	movw	r24, r28
     f56:	41 96       	adiw	r24, 0x11	; 17
     f58:	66 2d       	mov	r22, r6
     f5a:	0e 94 9c 00 	call	0x138	; 0x138 <Num_uCreate>
     f5e:	f2 2e       	mov	r15, r18
     f60:	03 2f       	mov	r16, r19
     f62:	14 2f       	mov	r17, r20
     f64:	e5 2e       	mov	r14, r21
     f66:	d6 2e       	mov	r13, r22
     f68:	c7 2e       	mov	r12, r23
     f6a:	b8 2e       	mov	r11, r24
     f6c:	a9 2e       	mov	r10, r25
     f6e:	2d a7       	lds	r18, 0x7d
     f70:	3a a3       	lds	r19, 0x5a
     f72:	4b a3       	lds	r20, 0x5b
     f74:	5c a3       	lds	r21, 0x5c
     f76:	6d a3       	lds	r22, 0x5d
     f78:	7e a3       	lds	r23, 0x5e
     f7a:	28 2e       	mov	r2, r24
     f7c:	39 2e       	mov	r3, r25
				flag1=2;
				counter=0;
				if (Num_1==0)
     f7e:	82 2f       	mov	r24, r18
     f80:	80 2b       	or	r24, r16
     f82:	81 2b       	or	r24, r17
     f84:	8e 29       	or	r24, r14
     f86:	8d 29       	or	r24, r13
     f88:	8c 29       	or	r24, r12
     f8a:	8b 29       	or	r24, r11
     f8c:	8a 29       	or	r24, r10
     f8e:	71 f4       	brne	.+28     	; 0xfac <main+0x270>
				{
						LCD_vMoveCursor(2,16);
     f90:	82 e0       	ldi	r24, 0x02	; 2
     f92:	60 e1       	ldi	r22, 0x10	; 16
     f94:	0e 94 3a 06 	call	0xc74	; 0xc74 <LCD_vMoveCursor>
						LCD_vSendChar('0');
     f98:	80 e3       	ldi	r24, 0x30	; 48
     f9a:	0e 94 e9 05 	call	0xbd2	; 0xbd2 <LCD_vSendChar>
			LCD_vSendChar(Operator);
		}
		else if (x=='=' && Status==1)
		{
			Status=0;
			Ans_flag=1;
     f9e:	54 2c       	mov	r5, r4
			}
			else if (syntax_error==1 && operation_flag==0)
			{
				LCD_vSendChar('=');
				Num_1=Num_uCreate(arr,counter);
				flag1=2;
     fa0:	99 24       	eor	r9, r9
     fa2:	68 94       	set
     fa4:	91 f8       	bld	r9, 1
			flag1=1;
			LCD_vSendChar(Operator);
		}
		else if (x=='=' && Status==1)
		{
			Status=0;
     fa6:	88 24       	eor	r8, r8
			else if (syntax_error==1 && operation_flag==0)
			{
				LCD_vSendChar('=');
				Num_1=Num_uCreate(arr,counter);
				flag1=2;
				counter=0;
     fa8:	66 24       	eor	r6, r6
     faa:	b8 c0       	rjmp	.+368    	; 0x111c <main+0x3e0>
						LCD_vMoveCursor(2,16);
						LCD_vSendChar('0');
				}
				else if (Num_1>0)
				{
					LCD_vMoveCursor(2,16);
     fac:	82 e0       	ldi	r24, 0x02	; 2
     fae:	60 e1       	ldi	r22, 0x10	; 16
     fb0:	0e 94 3a 06 	call	0xc74	; 0xc74 <LCD_vMoveCursor>
					LCD_vSendCmd(SHIFT_CURSOR_TO_LEFT_WHILE_WRITING);
     fb4:	84 e0       	ldi	r24, 0x04	; 4
     fb6:	0e 94 07 06 	call	0xc0e	; 0xc0e <LCD_vSendCmd>
					for (R=Num_1;R>0;R/=10)
     fba:	f9 86       	std	Y+9, r15	; 0x09
     fbc:	0a 87       	std	Y+10, r16	; 0x0a
     fbe:	1b 87       	std	Y+11, r17	; 0x0b
     fc0:	ec 86       	std	Y+12, r14	; 0x0c
     fc2:	dd 86       	std	Y+13, r13	; 0x0d
     fc4:	ce 86       	std	Y+14, r12	; 0x0e
     fc6:	bf 86       	std	Y+15, r11	; 0x0f
     fc8:	a8 8a       	std	Y+16, r10	; 0x10
     fca:	79 85       	ldd	r23, Y+9	; 0x09
     fcc:	6a 85       	ldd	r22, Y+10	; 0x0a
     fce:	5b 85       	ldd	r21, Y+11	; 0x0b
     fd0:	4c 85       	ldd	r20, Y+12	; 0x0c
     fd2:	3d 85       	ldd	r19, Y+13	; 0x0d
     fd4:	2e 85       	ldd	r18, Y+14	; 0x0e
     fd6:	9f 85       	ldd	r25, Y+15	; 0x0f
     fd8:	88 89       	ldd	r24, Y+16	; 0x10
     fda:	67 2b       	or	r22, r23
     fdc:	65 2b       	or	r22, r21
     fde:	64 2b       	or	r22, r20
     fe0:	63 2b       	or	r22, r19
     fe2:	62 2b       	or	r22, r18
     fe4:	69 2b       	or	r22, r25
     fe6:	68 2b       	or	r22, r24
     fe8:	09 f4       	brne	.+2      	; 0xfec <main+0x2b0>
     fea:	64 c0       	rjmp	.+200    	; 0x10b4 <main+0x378>
			else if (syntax_error==1 && operation_flag==0)
			{
				LCD_vSendChar('=');
				Num_1=Num_uCreate(arr,counter);
				flag1=2;
				counter=0;
     fec:	66 24       	eor	r6, r6
				{
					LCD_vMoveCursor(2,16);
					LCD_vSendCmd(SHIFT_CURSOR_TO_LEFT_WHILE_WRITING);
					for (R=Num_1;R>0;R/=10)
					{
						counter++;
     fee:	63 94       	inc	r6
				}
				else if (Num_1>0)
				{
					LCD_vMoveCursor(2,16);
					LCD_vSendCmd(SHIFT_CURSOR_TO_LEFT_WHILE_WRITING);
					for (R=Num_1;R>0;R/=10)
     ff0:	29 85       	ldd	r18, Y+9	; 0x09
     ff2:	3a 85       	ldd	r19, Y+10	; 0x0a
     ff4:	4b 85       	ldd	r20, Y+11	; 0x0b
     ff6:	5c 85       	ldd	r21, Y+12	; 0x0c
     ff8:	6d 85       	ldd	r22, Y+13	; 0x0d
     ffa:	7e 85       	ldd	r23, Y+14	; 0x0e
     ffc:	8f 85       	ldd	r24, Y+15	; 0x0f
     ffe:	98 89       	ldd	r25, Y+16	; 0x10
    1000:	0f 2e       	mov	r0, r31
    1002:	fa e0       	ldi	r31, 0x0A	; 10
    1004:	af 2e       	mov	r10, r31
    1006:	f0 2d       	mov	r31, r0
    1008:	bb 24       	eor	r11, r11
    100a:	cc 24       	eor	r12, r12
    100c:	dd 24       	eor	r13, r13
    100e:	ee 24       	eor	r14, r14
    1010:	ff 24       	eor	r15, r15
    1012:	00 e0       	ldi	r16, 0x00	; 0
    1014:	10 e0       	ldi	r17, 0x00	; 0
    1016:	0e 94 9c 14 	call	0x2938	; 0x2938 <__udivdi3>
    101a:	29 87       	std	Y+9, r18	; 0x09
    101c:	3a 87       	std	Y+10, r19	; 0x0a
    101e:	4b 87       	std	Y+11, r20	; 0x0b
    1020:	5c 87       	std	Y+12, r21	; 0x0c
    1022:	6d 87       	std	Y+13, r22	; 0x0d
    1024:	7e 87       	std	Y+14, r23	; 0x0e
    1026:	8f 87       	std	Y+15, r24	; 0x0f
    1028:	98 8b       	std	Y+16, r25	; 0x10
    102a:	79 85       	ldd	r23, Y+9	; 0x09
    102c:	6a 85       	ldd	r22, Y+10	; 0x0a
    102e:	5b 85       	ldd	r21, Y+11	; 0x0b
    1030:	4c 85       	ldd	r20, Y+12	; 0x0c
    1032:	3d 85       	ldd	r19, Y+13	; 0x0d
    1034:	2e 85       	ldd	r18, Y+14	; 0x0e
    1036:	9f 85       	ldd	r25, Y+15	; 0x0f
    1038:	88 89       	ldd	r24, Y+16	; 0x10
    103a:	67 2b       	or	r22, r23
    103c:	65 2b       	or	r22, r21
    103e:	64 2b       	or	r22, r20
    1040:	63 2b       	or	r22, r19
    1042:	62 2b       	or	r22, r18
    1044:	69 2b       	or	r22, r25
    1046:	68 2b       	or	r22, r24
    1048:	91 f6       	brne	.-92     	; 0xfee <main+0x2b2>
					{
						counter++;
    104a:	86 2c       	mov	r8, r6
					}
					for (i=0;i<counter;i++)
    104c:	66 20       	and	r6, r6
    104e:	99 f1       	breq	.+102    	; 0x10b6 <main+0x37a>
    1050:	99 24       	eor	r9, r9
    1052:	5e a0       	lds	r21, 0x8e
					{
						n=Num_1%10;
    1054:	2d a5       	lds	r18, 0x6d
    1056:	3a a1       	lds	r19, 0x4a
    1058:	4b a1       	lds	r20, 0x4b
    105a:	5c a1       	lds	r21, 0x4c
    105c:	6d a1       	lds	r22, 0x4d
    105e:	75 2d       	mov	r23, r5
    1060:	82 2d       	mov	r24, r2
    1062:	93 2d       	mov	r25, r3
    1064:	0f 2e       	mov	r0, r31
    1066:	fa e0       	ldi	r31, 0x0A	; 10
    1068:	af 2e       	mov	r10, r31
    106a:	f0 2d       	mov	r31, r0
    106c:	bb 24       	eor	r11, r11
    106e:	cc 24       	eor	r12, r12
    1070:	dd 24       	eor	r13, r13
    1072:	ee 24       	eor	r14, r14
    1074:	ff 24       	eor	r15, r15
    1076:	00 e0       	ldi	r16, 0x00	; 0
    1078:	10 e0       	ldi	r17, 0x00	; 0
    107a:	0e 94 e1 1a 	call	0x35c2	; 0x35c2 <__umoddi3>
						LCD_vSendChar(n+48);
    107e:	82 2f       	mov	r24, r18
    1080:	80 5d       	subi	r24, 0xD0	; 208
    1082:	0e 94 e9 05 	call	0xbd2	; 0xbd2 <LCD_vSendChar>
						Num_1/=10;
    1086:	2d a5       	lds	r18, 0x6d
    1088:	3a a1       	lds	r19, 0x4a
    108a:	4b a1       	lds	r20, 0x4b
    108c:	5c a1       	lds	r21, 0x4c
    108e:	6d a1       	lds	r22, 0x4d
    1090:	75 2d       	mov	r23, r5
    1092:	82 2d       	mov	r24, r2
    1094:	93 2d       	mov	r25, r3
    1096:	0e 94 9c 14 	call	0x2938	; 0x2938 <__udivdi3>
    109a:	2d a7       	lds	r18, 0x7d
    109c:	3a a3       	lds	r19, 0x5a
    109e:	4b a3       	lds	r20, 0x5b
    10a0:	5c a3       	lds	r21, 0x5c
    10a2:	6d a3       	lds	r22, 0x5d
    10a4:	57 2e       	mov	r5, r23
    10a6:	28 2e       	mov	r2, r24
    10a8:	39 2e       	mov	r3, r25
					LCD_vSendCmd(SHIFT_CURSOR_TO_LEFT_WHILE_WRITING);
					for (R=Num_1;R>0;R/=10)
					{
						counter++;
					}
					for (i=0;i<counter;i++)
    10aa:	93 94       	inc	r9
    10ac:	98 14       	cp	r9, r8
    10ae:	91 f6       	brne	.-92     	; 0x1054 <main+0x318>
    10b0:	7e a3       	lds	r23, 0x5e
    10b2:	01 c0       	rjmp	.+2      	; 0x10b6 <main+0x37a>
			else if (syntax_error==1 && operation_flag==0)
			{
				LCD_vSendChar('=');
				Num_1=Num_uCreate(arr,counter);
				flag1=2;
				counter=0;
    10b4:	66 24       	eor	r6, r6
					{
						n=Num_1%10;
						LCD_vSendChar(n+48);
						Num_1/=10;
					}
					LCD_vSendCmd(SHIFT_CURSOR_TO_RIGHT_WHILE_WRITING);
    10b6:	86 e0       	ldi	r24, 0x06	; 6
    10b8:	0e 94 07 06 	call	0xc0e	; 0xc0e <LCD_vSendCmd>
			LCD_vSendChar(Operator);
		}
		else if (x=='=' && Status==1)
		{
			Status=0;
			Ans_flag=1;
    10bc:	54 2c       	mov	r5, r4
			}
			else if (syntax_error==1 && operation_flag==0)
			{
				LCD_vSendChar('=');
				Num_1=Num_uCreate(arr,counter);
				flag1=2;
    10be:	99 24       	eor	r9, r9
    10c0:	68 94       	set
    10c2:	91 f8       	bld	r9, 1
			flag1=1;
			LCD_vSendChar(Operator);
		}
		else if (x=='=' && Status==1)
		{
			Status=0;
    10c4:	88 24       	eor	r8, r8
    10c6:	2a c0       	rjmp	.+84     	; 0x111c <main+0x3e0>
				}	
			}
			else
			{
				flag2=1;
				LCD_vSendChar(x);
    10c8:	81 2f       	mov	r24, r17
    10ca:	0e 94 e9 05 	call	0xbd2	; 0xbd2 <LCD_vSendChar>
			LCD_vSendChar(Operator);
		}
		else if (x=='=' && Status==1)
		{
			Status=0;
			Ans_flag=1;
    10ce:	54 2c       	mov	r5, r4
					LCD_vSendCmd(SHIFT_CURSOR_TO_RIGHT_WHILE_WRITING);
				}	
			}
			else
			{
				flag2=1;
    10d0:	74 2c       	mov	r7, r4
			flag1=1;
			LCD_vSendChar(Operator);
		}
		else if (x=='=' && Status==1)
		{
			Status=0;
    10d2:	88 24       	eor	r8, r8
    10d4:	03 c0       	rjmp	.+6      	; 0x10dc <main+0x3a0>
			flag2=0;
			__Memset__(arr,0,16);	
		}
		if (x >= '0' && x <= '9')
		{
			Status=1;
    10d6:	84 2c       	mov	r8, r4
    10d8:	01 c0       	rjmp	.+2      	; 0x10dc <main+0x3a0>
    10da:	84 2c       	mov	r8, r4
			{
				flag2=1;
				LCD_vSendChar(x);
			}	
		}		
		if ((flag1==1)&&(flag2==0))
    10dc:	a1 e0       	ldi	r26, 0x01	; 1
    10de:	9a 16       	cp	r9, r26
    10e0:	e9 f4       	brne	.+58     	; 0x111c <main+0x3e0>
    10e2:	77 20       	and	r7, r7
    10e4:	d1 f4       	brne	.+52     	; 0x111a <main+0x3de>
		{			
			Num_1=Num_uCreate(arr,counter);
    10e6:	ce 01       	movw	r24, r28
    10e8:	41 96       	adiw	r24, 0x11	; 17
    10ea:	66 2d       	mov	r22, r6
    10ec:	0e 94 9c 00 	call	0x138	; 0x138 <Num_uCreate>
    10f0:	2d a7       	lds	r18, 0x7d
    10f2:	3a a3       	lds	r19, 0x5a
    10f4:	4b a3       	lds	r20, 0x5b
    10f6:	5c a3       	lds	r21, 0x5c
    10f8:	6d a3       	lds	r22, 0x5d
    10fa:	7e a3       	lds	r23, 0x5e
    10fc:	28 2e       	mov	r2, r24
    10fe:	39 2e       	mov	r3, r25
			flag1=2;
			counter=0;
			__Memset__(arr,0,16);
    1100:	ce 01       	movw	r24, r28
    1102:	41 96       	adiw	r24, 0x11	; 17
    1104:	60 e0       	ldi	r22, 0x00	; 0
    1106:	40 e1       	ldi	r20, 0x10	; 16
    1108:	0e 94 1e 02 	call	0x43c	; 0x43c <__Memset__>
			}	
		}		
		if ((flag1==1)&&(flag2==0))
		{			
			Num_1=Num_uCreate(arr,counter);
			flag1=2;
    110c:	99 24       	eor	r9, r9
    110e:	68 94       	set
    1110:	91 f8       	bld	r9, 1
			counter=0;
    1112:	66 24       	eor	r6, r6
    1114:	20 c0       	rjmp	.+64     	; 0x1156 <main+0x41a>
			flag2=0;
			__Memset__(arr,0,16);	
		}
		if (x >= '0' && x <= '9')
		{
			Status=1;
    1116:	84 2c       	mov	r8, r4
    1118:	01 c0       	rjmp	.+2      	; 0x111c <main+0x3e0>
			{
				flag2=1;
				LCD_vSendChar(x);
			}	
		}		
		if ((flag1==1)&&(flag2==0))
    111a:	94 2c       	mov	r9, r4
			Num_1=Num_uCreate(arr,counter);
			flag1=2;
			counter=0;
			__Memset__(arr,0,16);
		}
		 if ((flag2==1)&&(flag1==2))
    111c:	b1 e0       	ldi	r27, 0x01	; 1
    111e:	7b 16       	cp	r7, r27
    1120:	b1 f4       	brne	.+44     	; 0x114e <main+0x412>
    1122:	f2 e0       	ldi	r31, 0x02	; 2
    1124:	9f 16       	cp	r9, r31
    1126:	09 f0       	breq	.+2      	; 0x112a <main+0x3ee>
    1128:	60 ce       	rjmp	.-832    	; 0xdea <main+0xae>
		{
			Num_2=Num_uCreate(arr,counter);
    112a:	ce 01       	movw	r24, r28
    112c:	41 96       	adiw	r24, 0x11	; 17
    112e:	66 2d       	mov	r22, r6
    1130:	0e 94 9c 00 	call	0x138	; 0x138 <Num_uCreate>
    1134:	2f a7       	lds	r18, 0x7f
    1136:	3f a3       	lds	r19, 0x5f
    1138:	48 a7       	lds	r20, 0x78
    113a:	59 a7       	lds	r21, 0x79
    113c:	6a a7       	lds	r22, 0x7a
    113e:	7b a7       	lds	r23, 0x7b
    1140:	8c a7       	lds	r24, 0x7c
    1142:	9e a7       	lds	r25, 0x7e
			flag2=2;
    1144:	77 24       	eor	r7, r7
    1146:	68 94       	set
    1148:	71 f8       	bld	r7, 1
			counter=0;
    114a:	66 24       	eor	r6, r6
    114c:	08 c0       	rjmp	.+16     	; 0x115e <main+0x422>
		}
		if ((flag1==2)&&(flag2==2))
    114e:	22 e0       	ldi	r18, 0x02	; 2
    1150:	92 16       	cp	r9, r18
    1152:	09 f0       	breq	.+2      	; 0x1156 <main+0x41a>
    1154:	4a ce       	rjmp	.-876    	; 0xdea <main+0xae>
    1156:	32 e0       	ldi	r19, 0x02	; 2
    1158:	73 16       	cp	r7, r19
    115a:	09 f0       	breq	.+2      	; 0x115e <main+0x422>
    115c:	43 ce       	rjmp	.-890    	; 0xde4 <main+0xa8>
		{
			switch (Operator)
    115e:	89 a1       	lds	r24, 0x49
    1160:	8b 32       	cpi	r24, 0x2B	; 43
    1162:	09 f4       	brne	.+2      	; 0x1166 <main+0x42a>
    1164:	79 c1       	rjmp	.+754    	; 0x1458 <main+0x71c>
    1166:	8c 32       	cpi	r24, 0x2C	; 44
    1168:	20 f4       	brcc	.+8      	; 0x1172 <main+0x436>
    116a:	8a 32       	cpi	r24, 0x2A	; 42
    116c:	09 f0       	breq	.+2      	; 0x1170 <main+0x434>
    116e:	da c1       	rjmp	.+948    	; 0x1524 <main+0x7e8>
    1170:	08 c0       	rjmp	.+16     	; 0x1182 <main+0x446>
    1172:	99 a1       	lds	r25, 0x49
    1174:	9d 32       	cpi	r25, 0x2D	; 45
    1176:	09 f4       	brne	.+2      	; 0x117a <main+0x43e>
    1178:	5e c0       	rjmp	.+188    	; 0x1236 <main+0x4fa>
    117a:	9f 32       	cpi	r25, 0x2F	; 47
    117c:	09 f0       	breq	.+2      	; 0x1180 <main+0x444>
    117e:	d2 c1       	rjmp	.+932    	; 0x1524 <main+0x7e8>
    1180:	1b c0       	rjmp	.+54     	; 0x11b8 <main+0x47c>
			{
				case '*':
				res=Num_1*Num_2;
    1182:	2f a5       	lds	r18, 0x6f
    1184:	3f a1       	lds	r19, 0x4f
    1186:	48 a5       	lds	r20, 0x68
    1188:	59 a5       	lds	r21, 0x69
    118a:	6a a5       	lds	r22, 0x6a
    118c:	7b a5       	lds	r23, 0x6b
    118e:	8c a5       	lds	r24, 0x6c
    1190:	9e a5       	lds	r25, 0x6e
    1192:	ad a4       	lds	r26, 0xad
    1194:	ba a0       	lds	r27, 0x8a
    1196:	cb a0       	lds	r28, 0x8b
    1198:	dc a0       	lds	r29, 0x8c
    119a:	ed a0       	lds	r30, 0x8d
    119c:	fe a0       	lds	r31, 0x8e
    119e:	02 2d       	mov	r16, r2
    11a0:	13 2d       	mov	r17, r3
    11a2:	0e 94 93 0b 	call	0x1726	; 0x1726 <__muldi3>
    11a6:	29 83       	std	Y+1, r18	; 0x01
    11a8:	3a 83       	std	Y+2, r19	; 0x02
    11aa:	4b 83       	std	Y+3, r20	; 0x03
    11ac:	5c 83       	std	Y+4, r21	; 0x04
    11ae:	6d 83       	std	Y+5, r22	; 0x05
    11b0:	7e 83       	std	Y+6, r23	; 0x06
    11b2:	8f 83       	std	Y+7, r24	; 0x07
    11b4:	98 87       	std	Y+8, r25	; 0x08
				break;
    11b6:	b6 c1       	rjmp	.+876    	; 0x1524 <main+0x7e8>
				case '/':
				if (Num_2==0)
    11b8:	8f a5       	lds	r24, 0x6f
    11ba:	af a1       	lds	r26, 0x4f
    11bc:	8a 2b       	or	r24, r26
    11be:	b8 a5       	lds	r27, 0x68
    11c0:	8b 2b       	or	r24, r27
    11c2:	f9 a5       	lds	r31, 0x69
    11c4:	8f 2b       	or	r24, r31
    11c6:	2a a5       	lds	r18, 0x6a
    11c8:	82 2b       	or	r24, r18
    11ca:	3b a5       	lds	r19, 0x6b
    11cc:	83 2b       	or	r24, r19
    11ce:	9c a5       	lds	r25, 0x6c
    11d0:	89 2b       	or	r24, r25
    11d2:	ae a5       	lds	r26, 0x6e
    11d4:	8a 2b       	or	r24, r26
    11d6:	a1 f4       	brne	.+40     	; 0x1200 <main+0x4c4>
				{
					LCD_vClrscreen();
    11d8:	0e 94 59 06 	call	0xcb2	; 0xcb2 <LCD_vClrscreen>
					LCD_vSendString("Error: Div 0");
    11dc:	85 e8       	ldi	r24, 0x85	; 133
    11de:	90 e0       	ldi	r25, 0x00	; 0
    11e0:	0e 94 2b 06 	call	0xc56	; 0xc56 <LCD_vSendString>
					Buz_vTurnON('b',4);
    11e4:	82 e6       	ldi	r24, 0x62	; 98
    11e6:	64 e0       	ldi	r22, 0x04	; 4
    11e8:	0e 94 5a 00 	call	0xb4	; 0xb4 <Buz_vTurnON>
    11ec:	8f ef       	ldi	r24, 0xFF	; 255
    11ee:	99 e6       	ldi	r25, 0x69	; 105
    11f0:	a8 e1       	ldi	r26, 0x18	; 24
    11f2:	81 50       	subi	r24, 0x01	; 1
    11f4:	90 40       	sbci	r25, 0x00	; 0
    11f6:	a0 40       	sbci	r26, 0x00	; 0
    11f8:	e1 f7       	brne	.-8      	; 0x11f2 <main+0x4b6>
    11fa:	00 c0       	rjmp	.+0      	; 0x11fc <main+0x4c0>
    11fc:	00 00       	nop
    11fe:	92 c1       	rjmp	.+804    	; 0x1524 <main+0x7e8>
					_delay_ms(1000);
				}
				else
				{				
					res=Num_1/Num_2;
    1200:	2d a5       	lds	r18, 0x6d
    1202:	3a a1       	lds	r19, 0x4a
    1204:	4b a1       	lds	r20, 0x4b
    1206:	5c a1       	lds	r21, 0x4c
    1208:	6d a1       	lds	r22, 0x4d
    120a:	7e a1       	lds	r23, 0x4e
    120c:	82 2d       	mov	r24, r2
    120e:	93 2d       	mov	r25, r3
    1210:	af a4       	lds	r26, 0xaf
    1212:	bf a0       	lds	r27, 0x8f
    1214:	c8 a4       	lds	r28, 0xa8
    1216:	d9 a4       	lds	r29, 0xa9
    1218:	ea a4       	lds	r30, 0xaa
    121a:	fb a4       	lds	r31, 0xab
    121c:	0c a5       	lds	r16, 0x6c
    121e:	1e a5       	lds	r17, 0x6e
    1220:	0e 94 9c 14 	call	0x2938	; 0x2938 <__udivdi3>
    1224:	29 83       	std	Y+1, r18	; 0x01
    1226:	3a 83       	std	Y+2, r19	; 0x02
    1228:	4b 83       	std	Y+3, r20	; 0x03
    122a:	5c 83       	std	Y+4, r21	; 0x04
    122c:	6d 83       	std	Y+5, r22	; 0x05
    122e:	7e 83       	std	Y+6, r23	; 0x06
    1230:	8f 83       	std	Y+7, r24	; 0x07
    1232:	98 87       	std	Y+8, r25	; 0x08
    1234:	77 c1       	rjmp	.+750    	; 0x1524 <main+0x7e8>
				}
				break;
				case '-':
				if (Num_1>=Num_2)
    1236:	9e a5       	lds	r25, 0x6e
    1238:	39 16       	cp	r3, r25
    123a:	08 f4       	brcc	.+2      	; 0x123e <main+0x502>
    123c:	9f c0       	rjmp	.+318    	; 0x137c <main+0x640>
    123e:	93 15       	cp	r25, r3
    1240:	71 f5       	brne	.+92     	; 0x129e <main+0x562>
    1242:	ac a5       	lds	r26, 0x6c
    1244:	2a 16       	cp	r2, r26
    1246:	08 f4       	brcc	.+2      	; 0x124a <main+0x50e>
    1248:	99 c0       	rjmp	.+306    	; 0x137c <main+0x640>
    124a:	a2 15       	cp	r26, r2
    124c:	41 f5       	brne	.+80     	; 0x129e <main+0x562>
    124e:	bb a5       	lds	r27, 0x6b
    1250:	fe a1       	lds	r31, 0x4e
    1252:	fb 17       	cp	r31, r27
    1254:	08 f4       	brcc	.+2      	; 0x1258 <main+0x51c>
    1256:	92 c0       	rjmp	.+292    	; 0x137c <main+0x640>
    1258:	bf 17       	cp	r27, r31
    125a:	09 f5       	brne	.+66     	; 0x129e <main+0x562>
    125c:	2a a5       	lds	r18, 0x6a
    125e:	3d a1       	lds	r19, 0x4d
    1260:	32 17       	cp	r19, r18
    1262:	08 f4       	brcc	.+2      	; 0x1266 <main+0x52a>
    1264:	8b c0       	rjmp	.+278    	; 0x137c <main+0x640>
    1266:	23 17       	cp	r18, r19
    1268:	d1 f4       	brne	.+52     	; 0x129e <main+0x562>
    126a:	89 a5       	lds	r24, 0x69
    126c:	9c a1       	lds	r25, 0x4c
    126e:	98 17       	cp	r25, r24
    1270:	08 f4       	brcc	.+2      	; 0x1274 <main+0x538>
    1272:	84 c0       	rjmp	.+264    	; 0x137c <main+0x640>
    1274:	89 17       	cp	r24, r25
    1276:	99 f4       	brne	.+38     	; 0x129e <main+0x562>
    1278:	a8 a5       	lds	r26, 0x68
    127a:	bb a1       	lds	r27, 0x4b
    127c:	ba 17       	cp	r27, r26
    127e:	08 f4       	brcc	.+2      	; 0x1282 <main+0x546>
    1280:	7d c0       	rjmp	.+250    	; 0x137c <main+0x640>
    1282:	ab 17       	cp	r26, r27
    1284:	61 f4       	brne	.+24     	; 0x129e <main+0x562>
    1286:	ff a1       	lds	r31, 0x4f
    1288:	2a a1       	lds	r18, 0x4a
    128a:	2f 17       	cp	r18, r31
    128c:	08 f4       	brcc	.+2      	; 0x1290 <main+0x554>
    128e:	76 c0       	rjmp	.+236    	; 0x137c <main+0x640>
    1290:	f2 17       	cp	r31, r18
    1292:	29 f4       	brne	.+10     	; 0x129e <main+0x562>
    1294:	3f a5       	lds	r19, 0x6f
    1296:	8d a5       	lds	r24, 0x6d
    1298:	83 17       	cp	r24, r19
    129a:	08 f4       	brcc	.+2      	; 0x129e <main+0x562>
    129c:	6f c0       	rjmp	.+222    	; 0x137c <main+0x640>
				{
					res=Num_1-Num_2;
    129e:	ed a5       	lds	r30, 0x6d
    12a0:	9f a5       	lds	r25, 0x6f
    12a2:	e9 1b       	sub	r30, r25
    12a4:	94 2d       	mov	r25, r4
    12a6:	ad a5       	lds	r26, 0x6d
    12a8:	ae 17       	cp	r26, r30
    12aa:	08 f0       	brcs	.+2      	; 0x12ae <main+0x572>
    12ac:	90 e0       	ldi	r25, 0x00	; 0
    12ae:	8a a1       	lds	r24, 0x4a
    12b0:	bf a1       	lds	r27, 0x4f
    12b2:	8b 1b       	sub	r24, r27
    12b4:	24 2d       	mov	r18, r4
    12b6:	fa a1       	lds	r31, 0x4a
    12b8:	f8 17       	cp	r31, r24
    12ba:	08 f0       	brcs	.+2      	; 0x12be <main+0x582>
    12bc:	20 e0       	ldi	r18, 0x00	; 0
    12be:	78 2f       	mov	r23, r24
    12c0:	79 1b       	sub	r23, r25
    12c2:	94 2d       	mov	r25, r4
    12c4:	87 17       	cp	r24, r23
    12c6:	08 f0       	brcs	.+2      	; 0x12ca <main+0x58e>
    12c8:	90 e0       	ldi	r25, 0x00	; 0
    12ca:	29 2b       	or	r18, r25
    12cc:	8b a1       	lds	r24, 0x4b
    12ce:	38 a5       	lds	r19, 0x68
    12d0:	83 1b       	sub	r24, r19
    12d2:	94 2d       	mov	r25, r4
    12d4:	ab a1       	lds	r26, 0x4b
    12d6:	a8 17       	cp	r26, r24
    12d8:	08 f0       	brcs	.+2      	; 0x12dc <main+0x5a0>
    12da:	90 e0       	ldi	r25, 0x00	; 0
    12dc:	68 2f       	mov	r22, r24
    12de:	62 1b       	sub	r22, r18
    12e0:	24 2d       	mov	r18, r4
    12e2:	86 17       	cp	r24, r22
    12e4:	08 f0       	brcs	.+2      	; 0x12e8 <main+0x5ac>
    12e6:	20 e0       	ldi	r18, 0x00	; 0
    12e8:	92 2b       	or	r25, r18
    12ea:	8c a1       	lds	r24, 0x4c
    12ec:	b9 a5       	lds	r27, 0x69
    12ee:	8b 1b       	sub	r24, r27
    12f0:	24 2d       	mov	r18, r4
    12f2:	fc a1       	lds	r31, 0x4c
    12f4:	f8 17       	cp	r31, r24
    12f6:	08 f0       	brcs	.+2      	; 0x12fa <main+0x5be>
    12f8:	20 e0       	ldi	r18, 0x00	; 0
    12fa:	58 2f       	mov	r21, r24
    12fc:	59 1b       	sub	r21, r25
    12fe:	94 2d       	mov	r25, r4
    1300:	85 17       	cp	r24, r21
    1302:	08 f0       	brcs	.+2      	; 0x1306 <main+0x5ca>
    1304:	90 e0       	ldi	r25, 0x00	; 0
    1306:	29 2b       	or	r18, r25
    1308:	8d a1       	lds	r24, 0x4d
    130a:	3a a5       	lds	r19, 0x6a
    130c:	83 1b       	sub	r24, r19
    130e:	94 2d       	mov	r25, r4
    1310:	ad a1       	lds	r26, 0x4d
    1312:	a8 17       	cp	r26, r24
    1314:	08 f0       	brcs	.+2      	; 0x1318 <main+0x5dc>
    1316:	90 e0       	ldi	r25, 0x00	; 0
    1318:	48 2f       	mov	r20, r24
    131a:	42 1b       	sub	r20, r18
    131c:	24 2d       	mov	r18, r4
    131e:	84 17       	cp	r24, r20
    1320:	08 f0       	brcs	.+2      	; 0x1324 <main+0x5e8>
    1322:	20 e0       	ldi	r18, 0x00	; 0
    1324:	92 2b       	or	r25, r18
    1326:	8e a1       	lds	r24, 0x4e
    1328:	bb a5       	lds	r27, 0x6b
    132a:	8b 1b       	sub	r24, r27
    132c:	24 2d       	mov	r18, r4
    132e:	fe a1       	lds	r31, 0x4e
    1330:	f8 17       	cp	r31, r24
    1332:	08 f0       	brcs	.+2      	; 0x1336 <main+0x5fa>
    1334:	20 e0       	ldi	r18, 0x00	; 0
    1336:	38 2f       	mov	r19, r24
    1338:	39 1b       	sub	r19, r25
    133a:	94 2d       	mov	r25, r4
    133c:	83 17       	cp	r24, r19
    133e:	08 f0       	brcs	.+2      	; 0x1342 <main+0x606>
    1340:	90 e0       	ldi	r25, 0x00	; 0
    1342:	29 2b       	or	r18, r25
    1344:	92 2d       	mov	r25, r2
    1346:	8c a5       	lds	r24, 0x6c
    1348:	98 1b       	sub	r25, r24
    134a:	84 2d       	mov	r24, r4
    134c:	29 16       	cp	r2, r25
    134e:	08 f0       	brcs	.+2      	; 0x1352 <main+0x616>
    1350:	80 e0       	ldi	r24, 0x00	; 0
    1352:	a9 2f       	mov	r26, r25
    1354:	a2 1b       	sub	r26, r18
    1356:	2a 2f       	mov	r18, r26
    1358:	f4 2d       	mov	r31, r4
    135a:	9a 17       	cp	r25, r26
    135c:	08 f0       	brcs	.+2      	; 0x1360 <main+0x624>
    135e:	f0 e0       	ldi	r31, 0x00	; 0
    1360:	8f 2b       	or	r24, r31
    1362:	93 2d       	mov	r25, r3
    1364:	be a5       	lds	r27, 0x6e
    1366:	9b 1b       	sub	r25, r27
    1368:	98 1b       	sub	r25, r24
    136a:	e9 83       	std	Y+1, r30	; 0x01
    136c:	7a 83       	std	Y+2, r23	; 0x02
    136e:	6b 83       	std	Y+3, r22	; 0x03
    1370:	5c 83       	std	Y+4, r21	; 0x04
    1372:	4d 83       	std	Y+5, r20	; 0x05
    1374:	3e 83       	std	Y+6, r19	; 0x06
    1376:	2f 83       	std	Y+7, r18	; 0x07
    1378:	98 87       	std	Y+8, r25	; 0x08
    137a:	d4 c0       	rjmp	.+424    	; 0x1524 <main+0x7e8>
				}
				else
				{
					res=Num_2-Num_1;
    137c:	ef a5       	lds	r30, 0x6f
    137e:	fd a5       	lds	r31, 0x6d
    1380:	ef 1b       	sub	r30, r31
    1382:	94 2d       	mov	r25, r4
    1384:	2f a5       	lds	r18, 0x6f
    1386:	2e 17       	cp	r18, r30
    1388:	08 f0       	brcs	.+2      	; 0x138c <main+0x650>
    138a:	90 e0       	ldi	r25, 0x00	; 0
    138c:	8f a1       	lds	r24, 0x4f
    138e:	3a a1       	lds	r19, 0x4a
    1390:	83 1b       	sub	r24, r19
    1392:	24 2d       	mov	r18, r4
    1394:	af a1       	lds	r26, 0x4f
    1396:	a8 17       	cp	r26, r24
    1398:	08 f0       	brcs	.+2      	; 0x139c <main+0x660>
    139a:	20 e0       	ldi	r18, 0x00	; 0
    139c:	78 2f       	mov	r23, r24
    139e:	79 1b       	sub	r23, r25
    13a0:	94 2d       	mov	r25, r4
    13a2:	87 17       	cp	r24, r23
    13a4:	08 f0       	brcs	.+2      	; 0x13a8 <main+0x66c>
    13a6:	90 e0       	ldi	r25, 0x00	; 0
    13a8:	29 2b       	or	r18, r25
    13aa:	88 a5       	lds	r24, 0x68
    13ac:	bb a1       	lds	r27, 0x4b
    13ae:	8b 1b       	sub	r24, r27
    13b0:	94 2d       	mov	r25, r4
    13b2:	f8 a5       	lds	r31, 0x68
    13b4:	f8 17       	cp	r31, r24
    13b6:	08 f0       	brcs	.+2      	; 0x13ba <main+0x67e>
    13b8:	90 e0       	ldi	r25, 0x00	; 0
    13ba:	68 2f       	mov	r22, r24
    13bc:	62 1b       	sub	r22, r18
    13be:	24 2d       	mov	r18, r4
    13c0:	86 17       	cp	r24, r22
    13c2:	08 f0       	brcs	.+2      	; 0x13c6 <main+0x68a>
    13c4:	20 e0       	ldi	r18, 0x00	; 0
    13c6:	92 2b       	or	r25, r18
    13c8:	89 a5       	lds	r24, 0x69
    13ca:	2c a1       	lds	r18, 0x4c
    13cc:	82 1b       	sub	r24, r18
    13ce:	24 2d       	mov	r18, r4
    13d0:	39 a5       	lds	r19, 0x69
    13d2:	38 17       	cp	r19, r24
    13d4:	08 f0       	brcs	.+2      	; 0x13d8 <main+0x69c>
    13d6:	20 e0       	ldi	r18, 0x00	; 0
    13d8:	58 2f       	mov	r21, r24
    13da:	59 1b       	sub	r21, r25
    13dc:	94 2d       	mov	r25, r4
    13de:	85 17       	cp	r24, r21
    13e0:	08 f0       	brcs	.+2      	; 0x13e4 <main+0x6a8>
    13e2:	90 e0       	ldi	r25, 0x00	; 0
    13e4:	29 2b       	or	r18, r25
    13e6:	8a a5       	lds	r24, 0x6a
    13e8:	9d a1       	lds	r25, 0x4d
    13ea:	89 1b       	sub	r24, r25
    13ec:	94 2d       	mov	r25, r4
    13ee:	aa a5       	lds	r26, 0x6a
    13f0:	a8 17       	cp	r26, r24
    13f2:	08 f0       	brcs	.+2      	; 0x13f6 <main+0x6ba>
    13f4:	90 e0       	ldi	r25, 0x00	; 0
    13f6:	48 2f       	mov	r20, r24
    13f8:	42 1b       	sub	r20, r18
    13fa:	24 2d       	mov	r18, r4
    13fc:	84 17       	cp	r24, r20
    13fe:	08 f0       	brcs	.+2      	; 0x1402 <main+0x6c6>
    1400:	20 e0       	ldi	r18, 0x00	; 0
    1402:	92 2b       	or	r25, r18
    1404:	8b a5       	lds	r24, 0x6b
    1406:	be a1       	lds	r27, 0x4e
    1408:	8b 1b       	sub	r24, r27
    140a:	24 2d       	mov	r18, r4
    140c:	fb a5       	lds	r31, 0x6b
    140e:	f8 17       	cp	r31, r24
    1410:	08 f0       	brcs	.+2      	; 0x1414 <main+0x6d8>
    1412:	20 e0       	ldi	r18, 0x00	; 0
    1414:	38 2f       	mov	r19, r24
    1416:	39 1b       	sub	r19, r25
    1418:	94 2d       	mov	r25, r4
    141a:	83 17       	cp	r24, r19
    141c:	08 f0       	brcs	.+2      	; 0x1420 <main+0x6e4>
    141e:	90 e0       	ldi	r25, 0x00	; 0
    1420:	29 2b       	or	r18, r25
    1422:	9c a5       	lds	r25, 0x6c
    1424:	92 19       	sub	r25, r2
    1426:	84 2d       	mov	r24, r4
    1428:	ac a5       	lds	r26, 0x6c
    142a:	a9 17       	cp	r26, r25
    142c:	08 f0       	brcs	.+2      	; 0x1430 <main+0x6f4>
    142e:	80 e0       	ldi	r24, 0x00	; 0
    1430:	b9 2f       	mov	r27, r25
    1432:	b2 1b       	sub	r27, r18
    1434:	2b 2f       	mov	r18, r27
    1436:	f4 2d       	mov	r31, r4
    1438:	9b 17       	cp	r25, r27
    143a:	08 f0       	brcs	.+2      	; 0x143e <main+0x702>
    143c:	f0 e0       	ldi	r31, 0x00	; 0
    143e:	8f 2b       	or	r24, r31
    1440:	9e a5       	lds	r25, 0x6e
    1442:	93 19       	sub	r25, r3
    1444:	98 1b       	sub	r25, r24
    1446:	e9 83       	std	Y+1, r30	; 0x01
    1448:	7a 83       	std	Y+2, r23	; 0x02
    144a:	6b 83       	std	Y+3, r22	; 0x03
    144c:	5c 83       	std	Y+4, r21	; 0x04
    144e:	4d 83       	std	Y+5, r20	; 0x05
    1450:	3e 83       	std	Y+6, r19	; 0x06
    1452:	2f 83       	std	Y+7, r18	; 0x07
    1454:	98 87       	std	Y+8, r25	; 0x08
    1456:	66 c0       	rjmp	.+204    	; 0x1524 <main+0x7e8>
				}				
				break;
				case '+':
				res=Num_1+Num_2;
    1458:	ef a5       	lds	r30, 0x6f
    145a:	fd a5       	lds	r31, 0x6d
    145c:	ef 0f       	add	r30, r31
    145e:	74 2d       	mov	r23, r4
    1460:	2f a5       	lds	r18, 0x6f
    1462:	e2 17       	cp	r30, r18
    1464:	08 f0       	brcs	.+2      	; 0x1468 <main+0x72c>
    1466:	70 e0       	ldi	r23, 0x00	; 0
    1468:	8f a1       	lds	r24, 0x4f
    146a:	3a a1       	lds	r19, 0x4a
    146c:	83 0f       	add	r24, r19
    146e:	64 2d       	mov	r22, r4
    1470:	9f a1       	lds	r25, 0x4f
    1472:	89 17       	cp	r24, r25
    1474:	08 f0       	brcs	.+2      	; 0x1478 <main+0x73c>
    1476:	60 e0       	ldi	r22, 0x00	; 0
    1478:	78 0f       	add	r23, r24
    147a:	94 2d       	mov	r25, r4
    147c:	78 17       	cp	r23, r24
    147e:	08 f0       	brcs	.+2      	; 0x1482 <main+0x746>
    1480:	90 e0       	ldi	r25, 0x00	; 0
    1482:	69 2b       	or	r22, r25
    1484:	88 a5       	lds	r24, 0x68
    1486:	ab a1       	lds	r26, 0x4b
    1488:	8a 0f       	add	r24, r26
    148a:	54 2d       	mov	r21, r4
    148c:	b8 a5       	lds	r27, 0x68
    148e:	8b 17       	cp	r24, r27
    1490:	08 f0       	brcs	.+2      	; 0x1494 <main+0x758>
    1492:	50 e0       	ldi	r21, 0x00	; 0
    1494:	68 0f       	add	r22, r24
    1496:	94 2d       	mov	r25, r4
    1498:	68 17       	cp	r22, r24
    149a:	08 f0       	brcs	.+2      	; 0x149e <main+0x762>
    149c:	90 e0       	ldi	r25, 0x00	; 0
    149e:	59 2b       	or	r21, r25
    14a0:	89 a5       	lds	r24, 0x69
    14a2:	fc a1       	lds	r31, 0x4c
    14a4:	8f 0f       	add	r24, r31
    14a6:	44 2d       	mov	r20, r4
    14a8:	29 a5       	lds	r18, 0x69
    14aa:	82 17       	cp	r24, r18
    14ac:	08 f0       	brcs	.+2      	; 0x14b0 <main+0x774>
    14ae:	40 e0       	ldi	r20, 0x00	; 0
    14b0:	58 0f       	add	r21, r24
    14b2:	94 2d       	mov	r25, r4
    14b4:	58 17       	cp	r21, r24
    14b6:	08 f0       	brcs	.+2      	; 0x14ba <main+0x77e>
    14b8:	90 e0       	ldi	r25, 0x00	; 0
    14ba:	49 2b       	or	r20, r25
    14bc:	8a a5       	lds	r24, 0x6a
    14be:	3d a1       	lds	r19, 0x4d
    14c0:	83 0f       	add	r24, r19
    14c2:	34 2d       	mov	r19, r4
    14c4:	9a a5       	lds	r25, 0x6a
    14c6:	89 17       	cp	r24, r25
    14c8:	08 f0       	brcs	.+2      	; 0x14cc <main+0x790>
    14ca:	30 e0       	ldi	r19, 0x00	; 0
    14cc:	48 0f       	add	r20, r24
    14ce:	94 2d       	mov	r25, r4
    14d0:	48 17       	cp	r20, r24
    14d2:	08 f0       	brcs	.+2      	; 0x14d6 <main+0x79a>
    14d4:	90 e0       	ldi	r25, 0x00	; 0
    14d6:	39 2b       	or	r19, r25
    14d8:	8b a5       	lds	r24, 0x6b
    14da:	ae a1       	lds	r26, 0x4e
    14dc:	8a 0f       	add	r24, r26
    14de:	24 2d       	mov	r18, r4
    14e0:	bb a5       	lds	r27, 0x6b
    14e2:	8b 17       	cp	r24, r27
    14e4:	08 f0       	brcs	.+2      	; 0x14e8 <main+0x7ac>
    14e6:	20 e0       	ldi	r18, 0x00	; 0
    14e8:	38 0f       	add	r19, r24
    14ea:	94 2d       	mov	r25, r4
    14ec:	38 17       	cp	r19, r24
    14ee:	08 f0       	brcs	.+2      	; 0x14f2 <main+0x7b6>
    14f0:	90 e0       	ldi	r25, 0x00	; 0
    14f2:	29 2b       	or	r18, r25
    14f4:	9c a5       	lds	r25, 0x6c
    14f6:	92 0d       	add	r25, r2
    14f8:	84 2d       	mov	r24, r4
    14fa:	fc a5       	lds	r31, 0x6c
    14fc:	9f 17       	cp	r25, r31
    14fe:	08 f0       	brcs	.+2      	; 0x1502 <main+0x7c6>
    1500:	80 e0       	ldi	r24, 0x00	; 0
    1502:	29 0f       	add	r18, r25
    1504:	f4 2d       	mov	r31, r4
    1506:	29 17       	cp	r18, r25
    1508:	08 f0       	brcs	.+2      	; 0x150c <main+0x7d0>
    150a:	f0 e0       	ldi	r31, 0x00	; 0
    150c:	8f 2b       	or	r24, r31
    150e:	9e a5       	lds	r25, 0x6e
    1510:	93 0d       	add	r25, r3
    1512:	89 0f       	add	r24, r25
    1514:	e9 83       	std	Y+1, r30	; 0x01
    1516:	7a 83       	std	Y+2, r23	; 0x02
    1518:	6b 83       	std	Y+3, r22	; 0x03
    151a:	5c 83       	std	Y+4, r21	; 0x04
    151c:	4d 83       	std	Y+5, r20	; 0x05
    151e:	3e 83       	std	Y+6, r19	; 0x06
    1520:	2f 83       	std	Y+7, r18	; 0x07
    1522:	88 87       	std	Y+8, r24	; 0x08
				break;				
			}			
			if (res==0)
    1524:	79 81       	ldd	r23, Y+1	; 0x01
    1526:	6a 81       	ldd	r22, Y+2	; 0x02
    1528:	5b 81       	ldd	r21, Y+3	; 0x03
    152a:	4c 81       	ldd	r20, Y+4	; 0x04
    152c:	3d 81       	ldd	r19, Y+5	; 0x05
    152e:	2e 81       	ldd	r18, Y+6	; 0x06
    1530:	9f 81       	ldd	r25, Y+7	; 0x07
    1532:	88 85       	ldd	r24, Y+8	; 0x08
    1534:	67 2b       	or	r22, r23
    1536:	65 2b       	or	r22, r21
    1538:	64 2b       	or	r22, r20
    153a:	63 2b       	or	r22, r19
    153c:	62 2b       	or	r22, r18
    153e:	69 2b       	or	r22, r25
    1540:	68 2b       	or	r22, r24
    1542:	e9 f4       	brne	.+58     	; 0x157e <main+0x842>
			{
				if (Num_2!=0 && Operator!='/')
    1544:	8f a5       	lds	r24, 0x6f
    1546:	2f a1       	lds	r18, 0x4f
    1548:	82 2b       	or	r24, r18
    154a:	38 a5       	lds	r19, 0x68
    154c:	83 2b       	or	r24, r19
    154e:	99 a5       	lds	r25, 0x69
    1550:	89 2b       	or	r24, r25
    1552:	aa a5       	lds	r26, 0x6a
    1554:	8a 2b       	or	r24, r26
    1556:	bb a5       	lds	r27, 0x6b
    1558:	8b 2b       	or	r24, r27
    155a:	fc a5       	lds	r31, 0x6c
    155c:	8f 2b       	or	r24, r31
    155e:	2e a5       	lds	r18, 0x6e
    1560:	82 2b       	or	r24, r18
    1562:	09 f4       	brne	.+2      	; 0x1566 <main+0x82a>
    1564:	42 cc       	rjmp	.-1916   	; 0xdea <main+0xae>
    1566:	39 a1       	lds	r19, 0x49
    1568:	3f 32       	cpi	r19, 0x2F	; 47
    156a:	09 f4       	brne	.+2      	; 0x156e <main+0x832>
    156c:	3e cc       	rjmp	.-1924   	; 0xdea <main+0xae>
				{
					LCD_vMoveCursor(2,16);
    156e:	82 e0       	ldi	r24, 0x02	; 2
    1570:	60 e1       	ldi	r22, 0x10	; 16
    1572:	0e 94 3a 06 	call	0xc74	; 0xc74 <LCD_vMoveCursor>
					LCD_vSendChar('0');
    1576:	80 e3       	ldi	r24, 0x30	; 48
    1578:	0e 94 e9 05 	call	0xbd2	; 0xbd2 <LCD_vSendChar>
    157c:	36 cc       	rjmp	.-1940   	; 0xdea <main+0xae>
				}				
			}
			else if (res>0)
    157e:	79 81       	ldd	r23, Y+1	; 0x01
    1580:	6a 81       	ldd	r22, Y+2	; 0x02
    1582:	5b 81       	ldd	r21, Y+3	; 0x03
    1584:	4c 81       	ldd	r20, Y+4	; 0x04
    1586:	3d 81       	ldd	r19, Y+5	; 0x05
    1588:	2e 81       	ldd	r18, Y+6	; 0x06
    158a:	9f 81       	ldd	r25, Y+7	; 0x07
    158c:	88 85       	ldd	r24, Y+8	; 0x08
    158e:	67 2b       	or	r22, r23
    1590:	65 2b       	or	r22, r21
    1592:	64 2b       	or	r22, r20
    1594:	63 2b       	or	r22, r19
    1596:	62 2b       	or	r22, r18
    1598:	69 2b       	or	r22, r25
    159a:	68 2b       	or	r22, r24
    159c:	09 f4       	brne	.+2      	; 0x15a0 <main+0x864>
    159e:	25 cc       	rjmp	.-1974   	; 0xdea <main+0xae>
			{
				LCD_vMoveCursor(2,16);
    15a0:	82 e0       	ldi	r24, 0x02	; 2
    15a2:	60 e1       	ldi	r22, 0x10	; 16
    15a4:	0e 94 3a 06 	call	0xc74	; 0xc74 <LCD_vMoveCursor>
				LCD_vSendCmd(SHIFT_CURSOR_TO_LEFT_WHILE_WRITING);
    15a8:	84 e0       	ldi	r24, 0x04	; 4
    15aa:	0e 94 07 06 	call	0xc0e	; 0xc0e <LCD_vSendCmd>
				for (R=res;R>0;R/=10)
    15ae:	79 81       	ldd	r23, Y+1	; 0x01
    15b0:	6a 81       	ldd	r22, Y+2	; 0x02
    15b2:	5b 81       	ldd	r21, Y+3	; 0x03
    15b4:	4c 81       	ldd	r20, Y+4	; 0x04
    15b6:	3d 81       	ldd	r19, Y+5	; 0x05
    15b8:	2e 81       	ldd	r18, Y+6	; 0x06
    15ba:	9f 81       	ldd	r25, Y+7	; 0x07
    15bc:	88 85       	ldd	r24, Y+8	; 0x08
    15be:	79 87       	std	Y+9, r23	; 0x09
    15c0:	6a 87       	std	Y+10, r22	; 0x0a
    15c2:	5b 87       	std	Y+11, r21	; 0x0b
    15c4:	4c 87       	std	Y+12, r20	; 0x0c
    15c6:	3d 87       	std	Y+13, r19	; 0x0d
    15c8:	2e 87       	std	Y+14, r18	; 0x0e
    15ca:	9f 87       	std	Y+15, r25	; 0x0f
    15cc:	88 8b       	std	Y+16, r24	; 0x10
    15ce:	79 85       	ldd	r23, Y+9	; 0x09
    15d0:	6a 85       	ldd	r22, Y+10	; 0x0a
    15d2:	5b 85       	ldd	r21, Y+11	; 0x0b
    15d4:	4c 85       	ldd	r20, Y+12	; 0x0c
    15d6:	3d 85       	ldd	r19, Y+13	; 0x0d
    15d8:	2e 85       	ldd	r18, Y+14	; 0x0e
    15da:	9f 85       	ldd	r25, Y+15	; 0x0f
    15dc:	88 89       	ldd	r24, Y+16	; 0x10
    15de:	67 2b       	or	r22, r23
    15e0:	65 2b       	or	r22, r21
    15e2:	64 2b       	or	r22, r20
    15e4:	63 2b       	or	r22, r19
    15e6:	62 2b       	or	r22, r18
    15e8:	69 2b       	or	r22, r25
    15ea:	68 2b       	or	r22, r24
    15ec:	71 f1       	breq	.+92     	; 0x164a <main+0x90e>
				{
					counter++;
    15ee:	63 94       	inc	r6
			}
			else if (res>0)
			{
				LCD_vMoveCursor(2,16);
				LCD_vSendCmd(SHIFT_CURSOR_TO_LEFT_WHILE_WRITING);
				for (R=res;R>0;R/=10)
    15f0:	29 85       	ldd	r18, Y+9	; 0x09
    15f2:	3a 85       	ldd	r19, Y+10	; 0x0a
    15f4:	4b 85       	ldd	r20, Y+11	; 0x0b
    15f6:	5c 85       	ldd	r21, Y+12	; 0x0c
    15f8:	6d 85       	ldd	r22, Y+13	; 0x0d
    15fa:	7e 85       	ldd	r23, Y+14	; 0x0e
    15fc:	8f 85       	ldd	r24, Y+15	; 0x0f
    15fe:	98 89       	ldd	r25, Y+16	; 0x10
    1600:	0f 2e       	mov	r0, r31
    1602:	fa e0       	ldi	r31, 0x0A	; 10
    1604:	af 2e       	mov	r10, r31
    1606:	f0 2d       	mov	r31, r0
    1608:	bb 24       	eor	r11, r11
    160a:	cc 24       	eor	r12, r12
    160c:	dd 24       	eor	r13, r13
    160e:	ee 24       	eor	r14, r14
    1610:	ff 24       	eor	r15, r15
    1612:	00 e0       	ldi	r16, 0x00	; 0
    1614:	10 e0       	ldi	r17, 0x00	; 0
    1616:	0e 94 9c 14 	call	0x2938	; 0x2938 <__udivdi3>
    161a:	29 87       	std	Y+9, r18	; 0x09
    161c:	3a 87       	std	Y+10, r19	; 0x0a
    161e:	4b 87       	std	Y+11, r20	; 0x0b
    1620:	5c 87       	std	Y+12, r21	; 0x0c
    1622:	6d 87       	std	Y+13, r22	; 0x0d
    1624:	7e 87       	std	Y+14, r23	; 0x0e
    1626:	8f 87       	std	Y+15, r24	; 0x0f
    1628:	98 8b       	std	Y+16, r25	; 0x10
    162a:	79 85       	ldd	r23, Y+9	; 0x09
    162c:	6a 85       	ldd	r22, Y+10	; 0x0a
    162e:	5b 85       	ldd	r21, Y+11	; 0x0b
    1630:	4c 85       	ldd	r20, Y+12	; 0x0c
    1632:	3d 85       	ldd	r19, Y+13	; 0x0d
    1634:	2e 85       	ldd	r18, Y+14	; 0x0e
    1636:	9f 85       	ldd	r25, Y+15	; 0x0f
    1638:	88 89       	ldd	r24, Y+16	; 0x10
    163a:	67 2b       	or	r22, r23
    163c:	65 2b       	or	r22, r21
    163e:	64 2b       	or	r22, r20
    1640:	63 2b       	or	r22, r19
    1642:	62 2b       	or	r22, r18
    1644:	69 2b       	or	r22, r25
    1646:	68 2b       	or	r22, r24
    1648:	91 f6       	brne	.-92     	; 0x15ee <main+0x8b2>
				{
					counter++;
				}
				for (i=0;i<counter;i++)
    164a:	66 20       	and	r6, r6
    164c:	a1 f1       	breq	.+104    	; 0x16b6 <main+0x97a>
    164e:	10 e0       	ldi	r17, 0x00	; 0
    1650:	8a aa       	sts	0x9a, r24
    1652:	89 2c       	mov	r8, r9
    1654:	91 2e       	mov	r9, r17
				{
					n=res%10;
    1656:	29 81       	ldd	r18, Y+1	; 0x01
    1658:	3a 81       	ldd	r19, Y+2	; 0x02
    165a:	4b 81       	ldd	r20, Y+3	; 0x03
    165c:	5c 81       	ldd	r21, Y+4	; 0x04
    165e:	6d 81       	ldd	r22, Y+5	; 0x05
    1660:	7e 81       	ldd	r23, Y+6	; 0x06
    1662:	8f 81       	ldd	r24, Y+7	; 0x07
    1664:	98 85       	ldd	r25, Y+8	; 0x08
    1666:	0f 2e       	mov	r0, r31
    1668:	fa e0       	ldi	r31, 0x0A	; 10
    166a:	af 2e       	mov	r10, r31
    166c:	f0 2d       	mov	r31, r0
    166e:	bb 24       	eor	r11, r11
    1670:	cc 24       	eor	r12, r12
    1672:	dd 24       	eor	r13, r13
    1674:	ee 24       	eor	r14, r14
    1676:	ff 24       	eor	r15, r15
    1678:	00 e0       	ldi	r16, 0x00	; 0
    167a:	10 e0       	ldi	r17, 0x00	; 0
    167c:	0e 94 e1 1a 	call	0x35c2	; 0x35c2 <__umoddi3>
					LCD_vSendChar(n+48);	
    1680:	82 2f       	mov	r24, r18
    1682:	80 5d       	subi	r24, 0xD0	; 208
    1684:	0e 94 e9 05 	call	0xbd2	; 0xbd2 <LCD_vSendChar>
					res/=10;				
    1688:	29 81       	ldd	r18, Y+1	; 0x01
    168a:	3a 81       	ldd	r19, Y+2	; 0x02
    168c:	4b 81       	ldd	r20, Y+3	; 0x03
    168e:	5c 81       	ldd	r21, Y+4	; 0x04
    1690:	6d 81       	ldd	r22, Y+5	; 0x05
    1692:	7e 81       	ldd	r23, Y+6	; 0x06
    1694:	8f 81       	ldd	r24, Y+7	; 0x07
    1696:	98 85       	ldd	r25, Y+8	; 0x08
    1698:	0e 94 9c 14 	call	0x2938	; 0x2938 <__udivdi3>
    169c:	29 83       	std	Y+1, r18	; 0x01
    169e:	3a 83       	std	Y+2, r19	; 0x02
    16a0:	4b 83       	std	Y+3, r20	; 0x03
    16a2:	5c 83       	std	Y+4, r21	; 0x04
    16a4:	6d 83       	std	Y+5, r22	; 0x05
    16a6:	7e 83       	std	Y+6, r23	; 0x06
    16a8:	8f 83       	std	Y+7, r24	; 0x07
    16aa:	98 87       	std	Y+8, r25	; 0x08
				LCD_vSendCmd(SHIFT_CURSOR_TO_LEFT_WHILE_WRITING);
				for (R=res;R>0;R/=10)
				{
					counter++;
				}
				for (i=0;i<counter;i++)
    16ac:	93 94       	inc	r9
    16ae:	96 14       	cp	r9, r6
    16b0:	91 f6       	brne	.-92     	; 0x1656 <main+0x91a>
    16b2:	98 2c       	mov	r9, r8
    16b4:	8a a8       	sts	0x8a, r24
				{
					n=res%10;
					LCD_vSendChar(n+48);	
					res/=10;				
				}
				if ((Num_2>Num_1)&&(Operator=='-'))
    16b6:	8e a5       	lds	r24, 0x6e
    16b8:	38 16       	cp	r3, r24
    16ba:	48 f1       	brcs	.+82     	; 0x170e <main+0x9d2>
    16bc:	83 15       	cp	r24, r3
    16be:	61 f5       	brne	.+88     	; 0x1718 <main+0x9dc>
    16c0:	9c a5       	lds	r25, 0x6c
    16c2:	29 16       	cp	r2, r25
    16c4:	20 f1       	brcs	.+72     	; 0x170e <main+0x9d2>
    16c6:	92 15       	cp	r25, r2
    16c8:	39 f5       	brne	.+78     	; 0x1718 <main+0x9dc>
    16ca:	ab a5       	lds	r26, 0x6b
    16cc:	be a1       	lds	r27, 0x4e
    16ce:	ba 17       	cp	r27, r26
    16d0:	f0 f0       	brcs	.+60     	; 0x170e <main+0x9d2>
    16d2:	ab 17       	cp	r26, r27
    16d4:	09 f5       	brne	.+66     	; 0x1718 <main+0x9dc>
    16d6:	fa a5       	lds	r31, 0x6a
    16d8:	2d a1       	lds	r18, 0x4d
    16da:	2f 17       	cp	r18, r31
    16dc:	c0 f0       	brcs	.+48     	; 0x170e <main+0x9d2>
    16de:	f2 17       	cp	r31, r18
    16e0:	d9 f4       	brne	.+54     	; 0x1718 <main+0x9dc>
    16e2:	39 a5       	lds	r19, 0x69
    16e4:	8c a1       	lds	r24, 0x4c
    16e6:	83 17       	cp	r24, r19
    16e8:	90 f0       	brcs	.+36     	; 0x170e <main+0x9d2>
    16ea:	38 17       	cp	r19, r24
    16ec:	a9 f4       	brne	.+42     	; 0x1718 <main+0x9dc>
    16ee:	98 a5       	lds	r25, 0x68
    16f0:	ab a1       	lds	r26, 0x4b
    16f2:	a9 17       	cp	r26, r25
    16f4:	60 f0       	brcs	.+24     	; 0x170e <main+0x9d2>
    16f6:	9a 17       	cp	r25, r26
    16f8:	79 f4       	brne	.+30     	; 0x1718 <main+0x9dc>
    16fa:	bf a1       	lds	r27, 0x4f
    16fc:	fa a1       	lds	r31, 0x4a
    16fe:	fb 17       	cp	r31, r27
    1700:	30 f0       	brcs	.+12     	; 0x170e <main+0x9d2>
    1702:	bf 17       	cp	r27, r31
    1704:	49 f4       	brne	.+18     	; 0x1718 <main+0x9dc>
    1706:	2f a5       	lds	r18, 0x6f
    1708:	3d a5       	lds	r19, 0x6d
    170a:	32 17       	cp	r19, r18
    170c:	28 f4       	brcc	.+10     	; 0x1718 <main+0x9dc>
    170e:	89 a1       	lds	r24, 0x49
    1710:	8d 32       	cpi	r24, 0x2D	; 45
    1712:	11 f4       	brne	.+4      	; 0x1718 <main+0x9dc>
				{
					LCD_vSendChar('-');
    1714:	0e 94 e9 05 	call	0xbd2	; 0xbd2 <LCD_vSendChar>
				}
				LCD_vSendCmd(SHIFT_CURSOR_TO_RIGHT_WHILE_WRITING);
    1718:	86 e0       	ldi	r24, 0x06	; 6
    171a:	0e 94 07 06 	call	0xc0e	; 0xc0e <LCD_vSendCmd>
    171e:	65 cb       	rjmp	.-2358   	; 0xdea <main+0xae>
			flag1=1;
			LCD_vSendChar(Operator);
		}
		else if (x=='=' && Status==1)
		{
			Status=0;
    1720:	48 aa       	sts	0x98, r20
    1722:	84 2c       	mov	r8, r4
    1724:	de cc       	rjmp	.-1604   	; 0x10e2 <main+0x3a6>

00001726 <__muldi3>:
    1726:	a0 e3       	ldi	r26, 0x30	; 48
    1728:	b0 e0       	ldi	r27, 0x00	; 0
    172a:	e9 e9       	ldi	r30, 0x99	; 153
    172c:	fb e0       	ldi	r31, 0x0B	; 11
    172e:	0c 94 c2 20 	jmp	0x4184	; 0x4184 <__prologue_saves__+0x4>
    1732:	29 8f       	std	Y+25, r18	; 0x19
    1734:	3a 8f       	std	Y+26, r19	; 0x1a
    1736:	4b 8f       	std	Y+27, r20	; 0x1b
    1738:	5c 8f       	std	Y+28, r21	; 0x1c
    173a:	6d 8f       	std	Y+29, r22	; 0x1d
    173c:	7e 8f       	std	Y+30, r23	; 0x1e
    173e:	8f 8f       	std	Y+31, r24	; 0x1f
    1740:	98 a3       	lds	r25, 0x58
    1742:	a9 8a       	std	Y+17, r10	; 0x11
    1744:	ba 8a       	std	Y+18, r11	; 0x12
    1746:	cb 8a       	std	Y+19, r12	; 0x13
    1748:	dc 8a       	std	Y+20, r13	; 0x14
    174a:	ed 8a       	std	Y+21, r14	; 0x15
    174c:	fe 8a       	std	Y+22, r15	; 0x16
    174e:	0f 8b       	std	Y+23, r16	; 0x17
    1750:	18 8f       	std	Y+24, r17	; 0x18
    1752:	09 8d       	ldd	r16, Y+25	; 0x19
    1754:	1a 8d       	ldd	r17, Y+26	; 0x1a
    1756:	2b 8d       	ldd	r18, Y+27	; 0x1b
    1758:	3c 8d       	ldd	r19, Y+28	; 0x1c
    175a:	09 a3       	lds	r16, 0x59
    175c:	1a a3       	lds	r17, 0x5a
    175e:	2b a3       	lds	r18, 0x5b
    1760:	3c a3       	lds	r19, 0x5c
    1762:	68 01       	movw	r12, r16
    1764:	79 01       	movw	r14, r18
    1766:	8f ef       	ldi	r24, 0xFF	; 255
    1768:	9f ef       	ldi	r25, 0xFF	; 255
    176a:	a0 e0       	ldi	r26, 0x00	; 0
    176c:	b0 e0       	ldi	r27, 0x00	; 0
    176e:	c8 22       	and	r12, r24
    1770:	d9 22       	and	r13, r25
    1772:	ea 22       	and	r14, r26
    1774:	fb 22       	and	r15, r27
    1776:	89 01       	movw	r16, r18
    1778:	22 27       	eor	r18, r18
    177a:	33 27       	eor	r19, r19
    177c:	09 a7       	lds	r16, 0x79
    177e:	1a a7       	lds	r17, 0x7a
    1780:	2b a7       	lds	r18, 0x7b
    1782:	3c a7       	lds	r19, 0x7c
    1784:	09 89       	ldd	r16, Y+17	; 0x11
    1786:	1a 89       	ldd	r17, Y+18	; 0x12
    1788:	2b 89       	ldd	r18, Y+19	; 0x13
    178a:	3c 89       	ldd	r19, Y+20	; 0x14
    178c:	0d a3       	lds	r16, 0x5d
    178e:	1e a3       	lds	r17, 0x5e
    1790:	2f a3       	lds	r18, 0x5f
    1792:	38 a7       	lds	r19, 0x78
    1794:	48 01       	movw	r8, r16
    1796:	59 01       	movw	r10, r18
    1798:	88 22       	and	r8, r24
    179a:	99 22       	and	r9, r25
    179c:	aa 22       	and	r10, r26
    179e:	bb 22       	and	r11, r27
    17a0:	29 01       	movw	r4, r18
    17a2:	66 24       	eor	r6, r6
    17a4:	77 24       	eor	r7, r7
    17a6:	c5 01       	movw	r24, r10
    17a8:	b4 01       	movw	r22, r8
    17aa:	a7 01       	movw	r20, r14
    17ac:	96 01       	movw	r18, r12
    17ae:	0e 94 7f 20 	call	0x40fe	; 0x40fe <__mulsi3>
    17b2:	6d a7       	lds	r22, 0x7d
    17b4:	7e a7       	lds	r23, 0x7e
    17b6:	8f a7       	lds	r24, 0x7f
    17b8:	98 ab       	sts	0x58, r25
    17ba:	c3 01       	movw	r24, r6
    17bc:	b2 01       	movw	r22, r4
    17be:	0e 94 7f 20 	call	0x40fe	; 0x40fe <__mulsi3>
    17c2:	6b 01       	movw	r12, r22
    17c4:	7c 01       	movw	r14, r24
    17c6:	c5 01       	movw	r24, r10
    17c8:	b4 01       	movw	r22, r8
    17ca:	29 a5       	lds	r18, 0x69
    17cc:	3a a5       	lds	r19, 0x6a
    17ce:	4b a5       	lds	r20, 0x6b
    17d0:	5c a5       	lds	r21, 0x6c
    17d2:	0e 94 7f 20 	call	0x40fe	; 0x40fe <__mulsi3>
    17d6:	4b 01       	movw	r8, r22
    17d8:	5c 01       	movw	r10, r24
    17da:	c3 01       	movw	r24, r6
    17dc:	b2 01       	movw	r22, r4
    17de:	0e 94 7f 20 	call	0x40fe	; 0x40fe <__mulsi3>
    17e2:	ab 01       	movw	r20, r22
    17e4:	bc 01       	movw	r22, r24
    17e6:	c8 0c       	add	r12, r8
    17e8:	d9 1c       	adc	r13, r9
    17ea:	ea 1c       	adc	r14, r10
    17ec:	fb 1c       	adc	r15, r11
    17ee:	0d a5       	lds	r16, 0x6d
    17f0:	1e a5       	lds	r17, 0x6e
    17f2:	2f a5       	lds	r18, 0x6f
    17f4:	38 a9       	sts	0x48, r19
    17f6:	c9 01       	movw	r24, r18
    17f8:	aa 27       	eor	r26, r26
    17fa:	bb 27       	eor	r27, r27
    17fc:	c8 0e       	add	r12, r24
    17fe:	d9 1e       	adc	r13, r25
    1800:	ea 1e       	adc	r14, r26
    1802:	fb 1e       	adc	r15, r27
    1804:	c8 14       	cp	r12, r8
    1806:	d9 04       	cpc	r13, r9
    1808:	ea 04       	cpc	r14, r10
    180a:	fb 04       	cpc	r15, r11
    180c:	20 f4       	brcc	.+8      	; 0x1816 <__muldi3+0xf0>
    180e:	40 50       	subi	r20, 0x00	; 0
    1810:	50 40       	sbci	r21, 0x00	; 0
    1812:	6f 4f       	sbci	r22, 0xFF	; 255
    1814:	7f 4f       	sbci	r23, 0xFF	; 255
    1816:	c7 01       	movw	r24, r14
    1818:	aa 27       	eor	r26, r26
    181a:	bb 27       	eor	r27, r27
    181c:	84 0f       	add	r24, r20
    181e:	95 1f       	adc	r25, r21
    1820:	a6 1f       	adc	r26, r22
    1822:	b7 1f       	adc	r27, r23
    1824:	8d 83       	std	Y+5, r24	; 0x05
    1826:	9e 83       	std	Y+6, r25	; 0x06
    1828:	af 83       	std	Y+7, r26	; 0x07
    182a:	b8 87       	std	Y+8, r27	; 0x08
    182c:	76 01       	movw	r14, r12
    182e:	dd 24       	eor	r13, r13
    1830:	cc 24       	eor	r12, r12
    1832:	4d a5       	lds	r20, 0x6d
    1834:	5e a5       	lds	r21, 0x6e
    1836:	6f a5       	lds	r22, 0x6f
    1838:	78 a9       	sts	0x48, r23
    183a:	60 70       	andi	r22, 0x00	; 0
    183c:	70 70       	andi	r23, 0x00	; 0
    183e:	c4 0e       	add	r12, r20
    1840:	d5 1e       	adc	r13, r21
    1842:	e6 1e       	adc	r14, r22
    1844:	f7 1e       	adc	r15, r23
    1846:	c9 82       	std	Y+1, r12	; 0x01
    1848:	da 82       	std	Y+2, r13	; 0x02
    184a:	eb 82       	std	Y+3, r14	; 0x03
    184c:	fc 82       	std	Y+4, r15	; 0x04
    184e:	1c 2d       	mov	r17, r12
    1850:	0a 81       	ldd	r16, Y+2	; 0x02
    1852:	8b 80       	ldd	r8, Y+3	; 0x03
    1854:	4c 80       	ldd	r4, Y+4	; 0x04
    1856:	8d 87       	std	Y+13, r24	; 0x0d
    1858:	8e 81       	ldd	r24, Y+6	; 0x06
    185a:	8e 87       	std	Y+14, r24	; 0x0e
    185c:	8f 81       	ldd	r24, Y+7	; 0x07
    185e:	8f 87       	std	Y+15, r24	; 0x0f
    1860:	88 85       	ldd	r24, Y+8	; 0x08
    1862:	88 8b       	std	Y+16, r24	; 0x10
    1864:	2d 89       	ldd	r18, Y+21	; 0x15
    1866:	3e 89       	ldd	r19, Y+22	; 0x16
    1868:	4f 89       	ldd	r20, Y+23	; 0x17
    186a:	58 8d       	ldd	r21, Y+24	; 0x18
    186c:	69 a1       	lds	r22, 0x49
    186e:	7a a1       	lds	r23, 0x4a
    1870:	8b a1       	lds	r24, 0x4b
    1872:	9c a1       	lds	r25, 0x4c
    1874:	0e 94 7f 20 	call	0x40fe	; 0x40fe <__mulsi3>
    1878:	6b 01       	movw	r12, r22
    187a:	7c 01       	movw	r14, r24
    187c:	2d 8d       	ldd	r18, Y+29	; 0x1d
    187e:	3e 8d       	ldd	r19, Y+30	; 0x1e
    1880:	4f 8d       	ldd	r20, Y+31	; 0x1f
    1882:	58 a1       	lds	r21, 0x48
    1884:	6d a1       	lds	r22, 0x4d
    1886:	7e a1       	lds	r23, 0x4e
    1888:	8f a1       	lds	r24, 0x4f
    188a:	98 a5       	lds	r25, 0x68
    188c:	0e 94 7f 20 	call	0x40fe	; 0x40fe <__mulsi3>
    1890:	dc 01       	movw	r26, r24
    1892:	cb 01       	movw	r24, r22
    1894:	c8 0e       	add	r12, r24
    1896:	d9 1e       	adc	r13, r25
    1898:	ea 1e       	adc	r14, r26
    189a:	fb 1e       	adc	r15, r27
    189c:	8d 85       	ldd	r24, Y+13	; 0x0d
    189e:	9e 85       	ldd	r25, Y+14	; 0x0e
    18a0:	af 85       	ldd	r26, Y+15	; 0x0f
    18a2:	b8 89       	ldd	r27, Y+16	; 0x10
    18a4:	8c 0d       	add	r24, r12
    18a6:	9d 1d       	adc	r25, r13
    18a8:	ae 1d       	adc	r26, r14
    18aa:	bf 1d       	adc	r27, r15
    18ac:	8d 87       	std	Y+13, r24	; 0x0d
    18ae:	9e 87       	std	Y+14, r25	; 0x0e
    18b0:	af 87       	std	Y+15, r26	; 0x0f
    18b2:	b8 8b       	std	Y+16, r27	; 0x10
    18b4:	68 2f       	mov	r22, r24
    18b6:	7e 85       	ldd	r23, Y+14	; 0x0e
    18b8:	21 2f       	mov	r18, r17
    18ba:	30 2f       	mov	r19, r16
    18bc:	48 2d       	mov	r20, r8
    18be:	54 2d       	mov	r21, r4
    18c0:	8f 85       	ldd	r24, Y+15	; 0x0f
    18c2:	98 89       	ldd	r25, Y+16	; 0x10
    18c4:	e0 96       	adiw	r28, 0x30	; 48
    18c6:	e0 e1       	ldi	r30, 0x10	; 16
    18c8:	0c 94 de 20 	jmp	0x41bc	; 0x41bc <__epilogue_restores__+0x4>

000018cc <__ashldi3>:
    18cc:	cf 92       	push	r12
    18ce:	df 92       	push	r13
    18d0:	ef 92       	push	r14
    18d2:	ff 92       	push	r15
    18d4:	0f 93       	push	r16
    18d6:	cf 93       	push	r28
    18d8:	df 93       	push	r29
    18da:	cd b7       	in	r28, 0x3d	; 61
    18dc:	de b7       	in	r29, 0x3e	; 62
    18de:	60 97       	sbiw	r28, 0x10	; 16
    18e0:	0f b6       	in	r0, 0x3f	; 63
    18e2:	f8 94       	cli
    18e4:	de bf       	out	0x3e, r29	; 62
    18e6:	0f be       	out	0x3f, r0	; 63
    18e8:	cd bf       	out	0x3d, r28	; 61
    18ea:	00 23       	and	r16, r16
    18ec:	09 f4       	brne	.+2      	; 0x18f0 <__ashldi3+0x24>
    18ee:	5a c0       	rjmp	.+180    	; 0x19a4 <__ashldi3+0xd8>
    18f0:	29 87       	std	Y+9, r18	; 0x09
    18f2:	3a 87       	std	Y+10, r19	; 0x0a
    18f4:	4b 87       	std	Y+11, r20	; 0x0b
    18f6:	5c 87       	std	Y+12, r21	; 0x0c
    18f8:	6d 87       	std	Y+13, r22	; 0x0d
    18fa:	7e 87       	std	Y+14, r23	; 0x0e
    18fc:	8f 87       	std	Y+15, r24	; 0x0f
    18fe:	98 8b       	std	Y+16, r25	; 0x10
    1900:	80 e2       	ldi	r24, 0x20	; 32
    1902:	80 1b       	sub	r24, r16
    1904:	49 85       	ldd	r20, Y+9	; 0x09
    1906:	5a 85       	ldd	r21, Y+10	; 0x0a
    1908:	6b 85       	ldd	r22, Y+11	; 0x0b
    190a:	7c 85       	ldd	r23, Y+12	; 0x0c
    190c:	18 16       	cp	r1, r24
    190e:	b4 f0       	brlt	.+44     	; 0x193c <__ashldi3+0x70>
    1910:	19 82       	std	Y+1, r1	; 0x01
    1912:	1a 82       	std	Y+2, r1	; 0x02
    1914:	1b 82       	std	Y+3, r1	; 0x03
    1916:	1c 82       	std	Y+4, r1	; 0x04
    1918:	99 27       	eor	r25, r25
    191a:	87 fd       	sbrc	r24, 7
    191c:	90 95       	com	r25
    191e:	90 95       	com	r25
    1920:	81 95       	neg	r24
    1922:	9f 4f       	sbci	r25, 0xFF	; 255
    1924:	04 c0       	rjmp	.+8      	; 0x192e <__ashldi3+0x62>
    1926:	44 0f       	add	r20, r20
    1928:	55 1f       	adc	r21, r21
    192a:	66 1f       	adc	r22, r22
    192c:	77 1f       	adc	r23, r23
    192e:	8a 95       	dec	r24
    1930:	d2 f7       	brpl	.-12     	; 0x1926 <__ashldi3+0x5a>
    1932:	4d 83       	std	Y+5, r20	; 0x05
    1934:	5e 83       	std	Y+6, r21	; 0x06
    1936:	6f 83       	std	Y+7, r22	; 0x07
    1938:	78 87       	std	Y+8, r23	; 0x08
    193a:	2c c0       	rjmp	.+88     	; 0x1994 <__ashldi3+0xc8>
    193c:	6a 01       	movw	r12, r20
    193e:	7b 01       	movw	r14, r22
    1940:	00 2e       	mov	r0, r16
    1942:	04 c0       	rjmp	.+8      	; 0x194c <__ashldi3+0x80>
    1944:	cc 0c       	add	r12, r12
    1946:	dd 1c       	adc	r13, r13
    1948:	ee 1c       	adc	r14, r14
    194a:	ff 1c       	adc	r15, r15
    194c:	0a 94       	dec	r0
    194e:	d2 f7       	brpl	.-12     	; 0x1944 <__ashldi3+0x78>
    1950:	c9 82       	std	Y+1, r12	; 0x01
    1952:	da 82       	std	Y+2, r13	; 0x02
    1954:	eb 82       	std	Y+3, r14	; 0x03
    1956:	fc 82       	std	Y+4, r15	; 0x04
    1958:	6a 01       	movw	r12, r20
    195a:	7b 01       	movw	r14, r22
    195c:	04 c0       	rjmp	.+8      	; 0x1966 <__ashldi3+0x9a>
    195e:	f6 94       	lsr	r15
    1960:	e7 94       	ror	r14
    1962:	d7 94       	ror	r13
    1964:	c7 94       	ror	r12
    1966:	8a 95       	dec	r24
    1968:	d2 f7       	brpl	.-12     	; 0x195e <__ashldi3+0x92>
    196a:	d7 01       	movw	r26, r14
    196c:	c6 01       	movw	r24, r12
    196e:	4d 85       	ldd	r20, Y+13	; 0x0d
    1970:	5e 85       	ldd	r21, Y+14	; 0x0e
    1972:	6f 85       	ldd	r22, Y+15	; 0x0f
    1974:	78 89       	ldd	r23, Y+16	; 0x10
    1976:	04 c0       	rjmp	.+8      	; 0x1980 <__ashldi3+0xb4>
    1978:	44 0f       	add	r20, r20
    197a:	55 1f       	adc	r21, r21
    197c:	66 1f       	adc	r22, r22
    197e:	77 1f       	adc	r23, r23
    1980:	0a 95       	dec	r16
    1982:	d2 f7       	brpl	.-12     	; 0x1978 <__ashldi3+0xac>
    1984:	84 2b       	or	r24, r20
    1986:	95 2b       	or	r25, r21
    1988:	a6 2b       	or	r26, r22
    198a:	b7 2b       	or	r27, r23
    198c:	8d 83       	std	Y+5, r24	; 0x05
    198e:	9e 83       	std	Y+6, r25	; 0x06
    1990:	af 83       	std	Y+7, r26	; 0x07
    1992:	b8 87       	std	Y+8, r27	; 0x08
    1994:	29 81       	ldd	r18, Y+1	; 0x01
    1996:	3a 81       	ldd	r19, Y+2	; 0x02
    1998:	4b 81       	ldd	r20, Y+3	; 0x03
    199a:	5c 81       	ldd	r21, Y+4	; 0x04
    199c:	6d 81       	ldd	r22, Y+5	; 0x05
    199e:	7e 81       	ldd	r23, Y+6	; 0x06
    19a0:	8f 81       	ldd	r24, Y+7	; 0x07
    19a2:	98 85       	ldd	r25, Y+8	; 0x08
    19a4:	60 96       	adiw	r28, 0x10	; 16
    19a6:	0f b6       	in	r0, 0x3f	; 63
    19a8:	f8 94       	cli
    19aa:	de bf       	out	0x3e, r29	; 62
    19ac:	0f be       	out	0x3f, r0	; 63
    19ae:	cd bf       	out	0x3d, r28	; 61
    19b0:	df 91       	pop	r29
    19b2:	cf 91       	pop	r28
    19b4:	0f 91       	pop	r16
    19b6:	ff 90       	pop	r15
    19b8:	ef 90       	pop	r14
    19ba:	df 90       	pop	r13
    19bc:	cf 90       	pop	r12
    19be:	08 95       	ret

000019c0 <__divdi3>:
    19c0:	a8 e4       	ldi	r26, 0x48	; 72
    19c2:	b0 e0       	ldi	r27, 0x00	; 0
    19c4:	e6 ee       	ldi	r30, 0xE6	; 230
    19c6:	fc e0       	ldi	r31, 0x0C	; 12
    19c8:	0c 94 c1 20 	jmp	0x4182	; 0x4182 <__prologue_saves__+0x2>
    19cc:	f5 01       	movw	r30, r10
    19ce:	29 a3       	lds	r18, 0x59
    19d0:	3a a3       	lds	r19, 0x5a
    19d2:	4b a3       	lds	r20, 0x5b
    19d4:	5c a3       	lds	r21, 0x5c
    19d6:	6d a3       	lds	r22, 0x5d
    19d8:	7e a3       	lds	r23, 0x5e
    19da:	8f a3       	lds	r24, 0x5f
    19dc:	98 a7       	lds	r25, 0x78
    19de:	a9 8e       	std	Y+25, r10	; 0x19
    19e0:	fa 8f       	std	Y+26, r31	; 0x1a
    19e2:	cb 8e       	std	Y+27, r12	; 0x1b
    19e4:	dc 8e       	std	Y+28, r13	; 0x1c
    19e6:	ed 8e       	std	Y+29, r14	; 0x1d
    19e8:	fe 8e       	std	Y+30, r15	; 0x1e
    19ea:	0f 8f       	std	Y+31, r16	; 0x1f
    19ec:	18 a3       	lds	r17, 0x58
    19ee:	8d a0       	lds	r24, 0x8d
    19f0:	9e a0       	lds	r25, 0x8e
    19f2:	af a0       	lds	r26, 0x8f
    19f4:	b8 a4       	lds	r27, 0xa8
    19f6:	b7 fe       	sbrs	r11, 7
    19f8:	67 c0       	rjmp	.+206    	; 0x1ac8 <__divdi3+0x108>
    19fa:	21 95       	neg	r18
    19fc:	b1 e0       	ldi	r27, 0x01	; 1
    19fe:	12 16       	cp	r1, r18
    1a00:	08 f0       	brcs	.+2      	; 0x1a04 <__divdi3+0x44>
    1a02:	b0 e0       	ldi	r27, 0x00	; 0
    1a04:	31 95       	neg	r19
    1a06:	a1 e0       	ldi	r26, 0x01	; 1
    1a08:	13 16       	cp	r1, r19
    1a0a:	08 f0       	brcs	.+2      	; 0x1a0e <__divdi3+0x4e>
    1a0c:	a0 e0       	ldi	r26, 0x00	; 0
    1a0e:	b3 2e       	mov	r11, r19
    1a10:	bb 1a       	sub	r11, r27
    1a12:	bb 2d       	mov	r27, r11
    1a14:	88 24       	eor	r8, r8
    1a16:	83 94       	inc	r8
    1a18:	3b 15       	cp	r19, r11
    1a1a:	08 f0       	brcs	.+2      	; 0x1a1e <__divdi3+0x5e>
    1a1c:	88 24       	eor	r8, r8
    1a1e:	a8 29       	or	r26, r8
    1a20:	41 95       	neg	r20
    1a22:	31 e0       	ldi	r19, 0x01	; 1
    1a24:	14 16       	cp	r1, r20
    1a26:	08 f0       	brcs	.+2      	; 0x1a2a <__divdi3+0x6a>
    1a28:	30 e0       	ldi	r19, 0x00	; 0
    1a2a:	b4 2e       	mov	r11, r20
    1a2c:	ba 1a       	sub	r11, r26
    1a2e:	ab 2d       	mov	r26, r11
    1a30:	88 24       	eor	r8, r8
    1a32:	83 94       	inc	r8
    1a34:	4b 15       	cp	r20, r11
    1a36:	08 f0       	brcs	.+2      	; 0x1a3a <__divdi3+0x7a>
    1a38:	88 24       	eor	r8, r8
    1a3a:	38 29       	or	r19, r8
    1a3c:	51 95       	neg	r21
    1a3e:	41 e0       	ldi	r20, 0x01	; 1
    1a40:	15 16       	cp	r1, r21
    1a42:	08 f0       	brcs	.+2      	; 0x1a46 <__divdi3+0x86>
    1a44:	40 e0       	ldi	r20, 0x00	; 0
    1a46:	45 2e       	mov	r4, r21
    1a48:	43 1a       	sub	r4, r19
    1a4a:	31 e0       	ldi	r19, 0x01	; 1
    1a4c:	54 15       	cp	r21, r4
    1a4e:	08 f0       	brcs	.+2      	; 0x1a52 <__divdi3+0x92>
    1a50:	30 e0       	ldi	r19, 0x00	; 0
    1a52:	43 2b       	or	r20, r19
    1a54:	61 95       	neg	r22
    1a56:	31 e0       	ldi	r19, 0x01	; 1
    1a58:	16 16       	cp	r1, r22
    1a5a:	08 f0       	brcs	.+2      	; 0x1a5e <__divdi3+0x9e>
    1a5c:	30 e0       	ldi	r19, 0x00	; 0
    1a5e:	86 2e       	mov	r8, r22
    1a60:	84 1a       	sub	r8, r20
    1a62:	41 e0       	ldi	r20, 0x01	; 1
    1a64:	68 15       	cp	r22, r8
    1a66:	08 f0       	brcs	.+2      	; 0x1a6a <__divdi3+0xaa>
    1a68:	40 e0       	ldi	r20, 0x00	; 0
    1a6a:	34 2b       	or	r19, r20
    1a6c:	71 95       	neg	r23
    1a6e:	41 e0       	ldi	r20, 0x01	; 1
    1a70:	17 16       	cp	r1, r23
    1a72:	08 f0       	brcs	.+2      	; 0x1a76 <__divdi3+0xb6>
    1a74:	40 e0       	ldi	r20, 0x00	; 0
    1a76:	57 2f       	mov	r21, r23
    1a78:	53 1b       	sub	r21, r19
    1a7a:	31 e0       	ldi	r19, 0x01	; 1
    1a7c:	75 17       	cp	r23, r21
    1a7e:	08 f0       	brcs	.+2      	; 0x1a82 <__divdi3+0xc2>
    1a80:	30 e0       	ldi	r19, 0x00	; 0
    1a82:	43 2b       	or	r20, r19
    1a84:	81 95       	neg	r24
    1a86:	31 e0       	ldi	r19, 0x01	; 1
    1a88:	18 16       	cp	r1, r24
    1a8a:	08 f0       	brcs	.+2      	; 0x1a8e <__divdi3+0xce>
    1a8c:	30 e0       	ldi	r19, 0x00	; 0
    1a8e:	68 2f       	mov	r22, r24
    1a90:	64 1b       	sub	r22, r20
    1a92:	46 2f       	mov	r20, r22
    1a94:	61 e0       	ldi	r22, 0x01	; 1
    1a96:	84 17       	cp	r24, r20
    1a98:	08 f0       	brcs	.+2      	; 0x1a9c <__divdi3+0xdc>
    1a9a:	60 e0       	ldi	r22, 0x00	; 0
    1a9c:	36 2b       	or	r19, r22
    1a9e:	91 95       	neg	r25
    1aa0:	93 1b       	sub	r25, r19
    1aa2:	29 a3       	lds	r18, 0x59
    1aa4:	ba a3       	lds	r27, 0x5a
    1aa6:	ab a3       	lds	r26, 0x5b
    1aa8:	4c a2       	lds	r20, 0x9c
    1aaa:	8d a2       	lds	r24, 0x9d
    1aac:	5e a3       	lds	r21, 0x5e
    1aae:	4f a3       	lds	r20, 0x5f
    1ab0:	98 a7       	lds	r25, 0x78
    1ab2:	8f ef       	ldi	r24, 0xFF	; 255
    1ab4:	9f ef       	ldi	r25, 0xFF	; 255
    1ab6:	af ef       	ldi	r26, 0xFF	; 255
    1ab8:	bf ef       	ldi	r27, 0xFF	; 255
    1aba:	25 96       	adiw	r28, 0x05	; 5
    1abc:	8c af       	sts	0x7c, r24
    1abe:	9d af       	sts	0x7d, r25
    1ac0:	ae af       	sts	0x7e, r26
    1ac2:	bf af       	sts	0x7f, r27
    1ac4:	25 97       	sbiw	r28, 0x05	; 5
    1ac6:	06 c0       	rjmp	.+12     	; 0x1ad4 <__divdi3+0x114>
    1ac8:	25 96       	adiw	r28, 0x05	; 5
    1aca:	1c ae       	sts	0xbc, r17
    1acc:	1d ae       	sts	0xbd, r17
    1ace:	1e ae       	sts	0xbe, r17
    1ad0:	1f ae       	sts	0xbf, r17
    1ad2:	25 97       	sbiw	r28, 0x05	; 5
    1ad4:	8d 8d       	ldd	r24, Y+29	; 0x1d
    1ad6:	9e 8d       	ldd	r25, Y+30	; 0x1e
    1ad8:	af 8d       	ldd	r26, Y+31	; 0x1f
    1ada:	b8 a1       	lds	r27, 0x48
    1adc:	b7 ff       	sbrs	r27, 7
    1ade:	68 c0       	rjmp	.+208    	; 0x1bb0 <__divdi3+0x1f0>
    1ae0:	25 96       	adiw	r28, 0x05	; 5
    1ae2:	2c ad       	sts	0x6c, r18
    1ae4:	3d ad       	sts	0x6d, r19
    1ae6:	4e ad       	sts	0x6e, r20
    1ae8:	5f ad       	sts	0x6f, r21
    1aea:	25 97       	sbiw	r28, 0x05	; 5
    1aec:	20 95       	com	r18
    1aee:	30 95       	com	r19
    1af0:	40 95       	com	r20
    1af2:	50 95       	com	r21
    1af4:	25 96       	adiw	r28, 0x05	; 5
    1af6:	2c af       	sts	0x7c, r18
    1af8:	3d af       	sts	0x7d, r19
    1afa:	4e af       	sts	0x7e, r20
    1afc:	5f af       	sts	0x7f, r21
    1afe:	25 97       	sbiw	r28, 0x05	; 5
    1b00:	e1 95       	neg	r30
    1b02:	81 e0       	ldi	r24, 0x01	; 1
    1b04:	1e 16       	cp	r1, r30
    1b06:	08 f0       	brcs	.+2      	; 0x1b0a <__divdi3+0x14a>
    1b08:	80 e0       	ldi	r24, 0x00	; 0
    1b0a:	f1 95       	neg	r31
    1b0c:	91 e0       	ldi	r25, 0x01	; 1
    1b0e:	1f 16       	cp	r1, r31
    1b10:	08 f0       	brcs	.+2      	; 0x1b14 <__divdi3+0x154>
    1b12:	90 e0       	ldi	r25, 0x00	; 0
    1b14:	4f 2f       	mov	r20, r31
    1b16:	48 1b       	sub	r20, r24
    1b18:	81 e0       	ldi	r24, 0x01	; 1
    1b1a:	f4 17       	cp	r31, r20
    1b1c:	08 f0       	brcs	.+2      	; 0x1b20 <__divdi3+0x160>
    1b1e:	80 e0       	ldi	r24, 0x00	; 0
    1b20:	98 2b       	or	r25, r24
    1b22:	c1 94       	neg	r12
    1b24:	81 e0       	ldi	r24, 0x01	; 1
    1b26:	1c 14       	cp	r1, r12
    1b28:	08 f0       	brcs	.+2      	; 0x1b2c <__divdi3+0x16c>
    1b2a:	80 e0       	ldi	r24, 0x00	; 0
    1b2c:	6c 2d       	mov	r22, r12
    1b2e:	69 1b       	sub	r22, r25
    1b30:	91 e0       	ldi	r25, 0x01	; 1
    1b32:	c6 16       	cp	r12, r22
    1b34:	08 f0       	brcs	.+2      	; 0x1b38 <__divdi3+0x178>
    1b36:	90 e0       	ldi	r25, 0x00	; 0
    1b38:	89 2b       	or	r24, r25
    1b3a:	d1 94       	neg	r13
    1b3c:	91 e0       	ldi	r25, 0x01	; 1
    1b3e:	1d 14       	cp	r1, r13
    1b40:	08 f0       	brcs	.+2      	; 0x1b44 <__divdi3+0x184>
    1b42:	90 e0       	ldi	r25, 0x00	; 0
    1b44:	5d 2d       	mov	r21, r13
    1b46:	58 1b       	sub	r21, r24
    1b48:	81 e0       	ldi	r24, 0x01	; 1
    1b4a:	d5 16       	cp	r13, r21
    1b4c:	08 f0       	brcs	.+2      	; 0x1b50 <__divdi3+0x190>
    1b4e:	80 e0       	ldi	r24, 0x00	; 0
    1b50:	98 2b       	or	r25, r24
    1b52:	e1 94       	neg	r14
    1b54:	81 e0       	ldi	r24, 0x01	; 1
    1b56:	1e 14       	cp	r1, r14
    1b58:	08 f0       	brcs	.+2      	; 0x1b5c <__divdi3+0x19c>
    1b5a:	80 e0       	ldi	r24, 0x00	; 0
    1b5c:	3e 2d       	mov	r19, r14
    1b5e:	39 1b       	sub	r19, r25
    1b60:	91 e0       	ldi	r25, 0x01	; 1
    1b62:	e3 16       	cp	r14, r19
    1b64:	08 f0       	brcs	.+2      	; 0x1b68 <__divdi3+0x1a8>
    1b66:	90 e0       	ldi	r25, 0x00	; 0
    1b68:	89 2b       	or	r24, r25
    1b6a:	f1 94       	neg	r15
    1b6c:	91 e0       	ldi	r25, 0x01	; 1
    1b6e:	1f 14       	cp	r1, r15
    1b70:	08 f0       	brcs	.+2      	; 0x1b74 <__divdi3+0x1b4>
    1b72:	90 e0       	ldi	r25, 0x00	; 0
    1b74:	2f 2d       	mov	r18, r15
    1b76:	28 1b       	sub	r18, r24
    1b78:	81 e0       	ldi	r24, 0x01	; 1
    1b7a:	f2 16       	cp	r15, r18
    1b7c:	08 f0       	brcs	.+2      	; 0x1b80 <__divdi3+0x1c0>
    1b7e:	80 e0       	ldi	r24, 0x00	; 0
    1b80:	98 2b       	or	r25, r24
    1b82:	01 95       	neg	r16
    1b84:	81 e0       	ldi	r24, 0x01	; 1
    1b86:	10 16       	cp	r1, r16
    1b88:	08 f0       	brcs	.+2      	; 0x1b8c <__divdi3+0x1cc>
    1b8a:	80 e0       	ldi	r24, 0x00	; 0
    1b8c:	70 2f       	mov	r23, r16
    1b8e:	79 1b       	sub	r23, r25
    1b90:	97 2f       	mov	r25, r23
    1b92:	71 e0       	ldi	r23, 0x01	; 1
    1b94:	09 17       	cp	r16, r25
    1b96:	08 f0       	brcs	.+2      	; 0x1b9a <__divdi3+0x1da>
    1b98:	70 e0       	ldi	r23, 0x00	; 0
    1b9a:	87 2b       	or	r24, r23
    1b9c:	11 95       	neg	r17
    1b9e:	18 1b       	sub	r17, r24
    1ba0:	e9 8f       	std	Y+25, r30	; 0x19
    1ba2:	4a 8f       	std	Y+26, r20	; 0x1a
    1ba4:	6b 8f       	std	Y+27, r22	; 0x1b
    1ba6:	5c 8f       	std	Y+28, r21	; 0x1c
    1ba8:	3d 8f       	std	Y+29, r19	; 0x1d
    1baa:	2e 8f       	std	Y+30, r18	; 0x1e
    1bac:	9f 8f       	std	Y+31, r25	; 0x1f
    1bae:	18 a3       	lds	r17, 0x58
    1bb0:	79 8d       	ldd	r23, Y+25	; 0x19
    1bb2:	6a 8d       	ldd	r22, Y+26	; 0x1a
    1bb4:	5b 8d       	ldd	r21, Y+27	; 0x1b
    1bb6:	4c 8d       	ldd	r20, Y+28	; 0x1c
    1bb8:	3d 8d       	ldd	r19, Y+29	; 0x1d
    1bba:	2e 8d       	ldd	r18, Y+30	; 0x1e
    1bbc:	9f 8d       	ldd	r25, Y+31	; 0x1f
    1bbe:	88 a1       	lds	r24, 0x48
    1bc0:	e9 a1       	lds	r30, 0x49
    1bc2:	e9 8b       	std	Y+17, r30	; 0x11
    1bc4:	ea a1       	lds	r30, 0x4a
    1bc6:	ea 8b       	std	Y+18, r30	; 0x12
    1bc8:	eb a1       	lds	r30, 0x4b
    1bca:	eb 8b       	std	Y+19, r30	; 0x13
    1bcc:	ec a1       	lds	r30, 0x4c
    1bce:	ec 8b       	std	Y+20, r30	; 0x14
    1bd0:	ed a1       	lds	r30, 0x4d
    1bd2:	ed 8b       	std	Y+21, r30	; 0x15
    1bd4:	ee a1       	lds	r30, 0x4e
    1bd6:	ee 8b       	std	Y+22, r30	; 0x16
    1bd8:	ef a1       	lds	r30, 0x4f
    1bda:	ef 8b       	std	Y+23, r30	; 0x17
    1bdc:	e8 a5       	lds	r30, 0x68
    1bde:	e8 8f       	std	Y+24, r30	; 0x18
    1be0:	79 87       	std	Y+9, r23	; 0x09
    1be2:	6a 87       	std	Y+10, r22	; 0x0a
    1be4:	5b 87       	std	Y+11, r21	; 0x0b
    1be6:	4c 87       	std	Y+12, r20	; 0x0c
    1be8:	3d 87       	std	Y+13, r19	; 0x0d
    1bea:	2e 87       	std	Y+14, r18	; 0x0e
    1bec:	9f 87       	std	Y+15, r25	; 0x0f
    1bee:	88 8b       	std	Y+16, r24	; 0x10
    1bf0:	89 84       	ldd	r8, Y+9	; 0x09
    1bf2:	9a 84       	ldd	r9, Y+10	; 0x0a
    1bf4:	ab 84       	ldd	r10, Y+11	; 0x0b
    1bf6:	bc 84       	ldd	r11, Y+12	; 0x0c
    1bf8:	8d 85       	ldd	r24, Y+13	; 0x0d
    1bfa:	9e 85       	ldd	r25, Y+14	; 0x0e
    1bfc:	af 85       	ldd	r26, Y+15	; 0x0f
    1bfe:	b8 89       	ldd	r27, Y+16	; 0x10
    1c00:	e9 88       	ldd	r14, Y+17	; 0x11
    1c02:	fa 88       	ldd	r15, Y+18	; 0x12
    1c04:	0b 89       	ldd	r16, Y+19	; 0x13
    1c06:	1c 89       	ldd	r17, Y+20	; 0x14
    1c08:	ed aa       	sts	0x9d, r30
    1c0a:	fe aa       	sts	0x9e, r31
    1c0c:	0f ab       	sts	0x5f, r16
    1c0e:	18 af       	sts	0x78, r17
    1c10:	cd 88       	ldd	r12, Y+21	; 0x15
    1c12:	de 88       	ldd	r13, Y+22	; 0x16
    1c14:	ef 88       	ldd	r14, Y+23	; 0x17
    1c16:	f8 8c       	ldd	r15, Y+24	; 0x18
    1c18:	00 97       	sbiw	r24, 0x00	; 0
    1c1a:	a1 05       	cpc	r26, r1
    1c1c:	b1 05       	cpc	r27, r1
    1c1e:	09 f0       	breq	.+2      	; 0x1c22 <__divdi3+0x262>
    1c20:	bd c3       	rjmp	.+1914   	; 0x239c <__divdi3+0x9dc>
    1c22:	c8 14       	cp	r12, r8
    1c24:	d9 04       	cpc	r13, r9
    1c26:	ea 04       	cpc	r14, r10
    1c28:	fb 04       	cpc	r15, r11
    1c2a:	08 f0       	brcs	.+2      	; 0x1c2e <__divdi3+0x26e>
    1c2c:	4d c1       	rjmp	.+666    	; 0x1ec8 <__divdi3+0x508>
    1c2e:	00 e0       	ldi	r16, 0x00	; 0
    1c30:	80 16       	cp	r8, r16
    1c32:	00 e0       	ldi	r16, 0x00	; 0
    1c34:	90 06       	cpc	r9, r16
    1c36:	01 e0       	ldi	r16, 0x01	; 1
    1c38:	a0 06       	cpc	r10, r16
    1c3a:	00 e0       	ldi	r16, 0x00	; 0
    1c3c:	b0 06       	cpc	r11, r16
    1c3e:	58 f4       	brcc	.+22     	; 0x1c56 <__divdi3+0x296>
    1c40:	1f ef       	ldi	r17, 0xFF	; 255
    1c42:	81 16       	cp	r8, r17
    1c44:	91 04       	cpc	r9, r1
    1c46:	a1 04       	cpc	r10, r1
    1c48:	b1 04       	cpc	r11, r1
    1c4a:	09 f0       	breq	.+2      	; 0x1c4e <__divdi3+0x28e>
    1c4c:	90 f4       	brcc	.+36     	; 0x1c72 <__divdi3+0x2b2>
    1c4e:	80 e0       	ldi	r24, 0x00	; 0
    1c50:	90 e0       	ldi	r25, 0x00	; 0
    1c52:	dc 01       	movw	r26, r24
    1c54:	17 c0       	rjmp	.+46     	; 0x1c84 <__divdi3+0x2c4>
    1c56:	20 e0       	ldi	r18, 0x00	; 0
    1c58:	82 16       	cp	r8, r18
    1c5a:	20 e0       	ldi	r18, 0x00	; 0
    1c5c:	92 06       	cpc	r9, r18
    1c5e:	20 e0       	ldi	r18, 0x00	; 0
    1c60:	a2 06       	cpc	r10, r18
    1c62:	21 e0       	ldi	r18, 0x01	; 1
    1c64:	b2 06       	cpc	r11, r18
    1c66:	50 f4       	brcc	.+20     	; 0x1c7c <__divdi3+0x2bc>
    1c68:	80 e1       	ldi	r24, 0x10	; 16
    1c6a:	90 e0       	ldi	r25, 0x00	; 0
    1c6c:	a0 e0       	ldi	r26, 0x00	; 0
    1c6e:	b0 e0       	ldi	r27, 0x00	; 0
    1c70:	09 c0       	rjmp	.+18     	; 0x1c84 <__divdi3+0x2c4>
    1c72:	88 e0       	ldi	r24, 0x08	; 8
    1c74:	90 e0       	ldi	r25, 0x00	; 0
    1c76:	a0 e0       	ldi	r26, 0x00	; 0
    1c78:	b0 e0       	ldi	r27, 0x00	; 0
    1c7a:	04 c0       	rjmp	.+8      	; 0x1c84 <__divdi3+0x2c4>
    1c7c:	88 e1       	ldi	r24, 0x18	; 24
    1c7e:	90 e0       	ldi	r25, 0x00	; 0
    1c80:	a0 e0       	ldi	r26, 0x00	; 0
    1c82:	b0 e0       	ldi	r27, 0x00	; 0
    1c84:	b5 01       	movw	r22, r10
    1c86:	a4 01       	movw	r20, r8
    1c88:	08 2e       	mov	r0, r24
    1c8a:	04 c0       	rjmp	.+8      	; 0x1c94 <__divdi3+0x2d4>
    1c8c:	76 95       	lsr	r23
    1c8e:	67 95       	ror	r22
    1c90:	57 95       	ror	r21
    1c92:	47 95       	ror	r20
    1c94:	0a 94       	dec	r0
    1c96:	d2 f7       	brpl	.-12     	; 0x1c8c <__divdi3+0x2cc>
    1c98:	fa 01       	movw	r30, r20
    1c9a:	ee 56       	subi	r30, 0x6E	; 110
    1c9c:	ff 4f       	sbci	r31, 0xFF	; 255
    1c9e:	20 81       	ld	r18, Z
    1ca0:	40 e2       	ldi	r20, 0x20	; 32
    1ca2:	50 e0       	ldi	r21, 0x00	; 0
    1ca4:	60 e0       	ldi	r22, 0x00	; 0
    1ca6:	70 e0       	ldi	r23, 0x00	; 0
    1ca8:	48 1b       	sub	r20, r24
    1caa:	59 0b       	sbc	r21, r25
    1cac:	6a 0b       	sbc	r22, r26
    1cae:	7b 0b       	sbc	r23, r27
    1cb0:	42 1b       	sub	r20, r18
    1cb2:	51 09       	sbc	r21, r1
    1cb4:	61 09       	sbc	r22, r1
    1cb6:	71 09       	sbc	r23, r1
    1cb8:	41 15       	cp	r20, r1
    1cba:	51 05       	cpc	r21, r1
    1cbc:	61 05       	cpc	r22, r1
    1cbe:	71 05       	cpc	r23, r1
    1cc0:	a1 f1       	breq	.+104    	; 0x1d2a <__divdi3+0x36a>
    1cc2:	04 2e       	mov	r0, r20
    1cc4:	04 c0       	rjmp	.+8      	; 0x1cce <__divdi3+0x30e>
    1cc6:	88 0c       	add	r8, r8
    1cc8:	99 1c       	adc	r9, r9
    1cca:	aa 1c       	adc	r10, r10
    1ccc:	bb 1c       	adc	r11, r11
    1cce:	0a 94       	dec	r0
    1cd0:	d2 f7       	brpl	.-12     	; 0x1cc6 <__divdi3+0x306>
    1cd2:	97 01       	movw	r18, r14
    1cd4:	86 01       	movw	r16, r12
    1cd6:	04 2e       	mov	r0, r20
    1cd8:	04 c0       	rjmp	.+8      	; 0x1ce2 <__divdi3+0x322>
    1cda:	00 0f       	add	r16, r16
    1cdc:	11 1f       	adc	r17, r17
    1cde:	22 1f       	adc	r18, r18
    1ce0:	33 1f       	adc	r19, r19
    1ce2:	0a 94       	dec	r0
    1ce4:	d2 f7       	brpl	.-12     	; 0x1cda <__divdi3+0x31a>
    1ce6:	80 e2       	ldi	r24, 0x20	; 32
    1ce8:	90 e0       	ldi	r25, 0x00	; 0
    1cea:	84 1b       	sub	r24, r20
    1cec:	95 0b       	sbc	r25, r21
    1cee:	cd a8       	sts	0x8d, r28
    1cf0:	de a8       	sts	0x8e, r29
    1cf2:	ef a8       	sts	0x8f, r30
    1cf4:	f8 ac       	sts	0xa8, r31
    1cf6:	04 c0       	rjmp	.+8      	; 0x1d00 <__divdi3+0x340>
    1cf8:	f6 94       	lsr	r15
    1cfa:	e7 94       	ror	r14
    1cfc:	d7 94       	ror	r13
    1cfe:	c7 94       	ror	r12
    1d00:	8a 95       	dec	r24
    1d02:	d2 f7       	brpl	.-12     	; 0x1cf8 <__divdi3+0x338>
    1d04:	c0 2a       	or	r12, r16
    1d06:	d1 2a       	or	r13, r17
    1d08:	e2 2a       	or	r14, r18
    1d0a:	f3 2a       	or	r15, r19
    1d0c:	0d a9       	sts	0x4d, r16
    1d0e:	1e a9       	sts	0x4e, r17
    1d10:	2f a9       	sts	0x4f, r18
    1d12:	38 ad       	sts	0x68, r19
    1d14:	04 c0       	rjmp	.+8      	; 0x1d1e <__divdi3+0x35e>
    1d16:	00 0f       	add	r16, r16
    1d18:	11 1f       	adc	r17, r17
    1d1a:	22 1f       	adc	r18, r18
    1d1c:	33 1f       	adc	r19, r19
    1d1e:	4a 95       	dec	r20
    1d20:	d2 f7       	brpl	.-12     	; 0x1d16 <__divdi3+0x356>
    1d22:	0d ab       	sts	0x5d, r16
    1d24:	1e ab       	sts	0x5e, r17
    1d26:	2f ab       	sts	0x5f, r18
    1d28:	38 af       	sts	0x78, r19
    1d2a:	25 01       	movw	r4, r10
    1d2c:	66 24       	eor	r6, r6
    1d2e:	77 24       	eor	r7, r7
    1d30:	95 01       	movw	r18, r10
    1d32:	84 01       	movw	r16, r8
    1d34:	20 70       	andi	r18, 0x00	; 0
    1d36:	30 70       	andi	r19, 0x00	; 0
    1d38:	09 ab       	sts	0x59, r16
    1d3a:	1a ab       	sts	0x5a, r17
    1d3c:	2b ab       	sts	0x5b, r18
    1d3e:	3c ab       	sts	0x5c, r19
    1d40:	c7 01       	movw	r24, r14
    1d42:	b6 01       	movw	r22, r12
    1d44:	a3 01       	movw	r20, r6
    1d46:	92 01       	movw	r18, r4
    1d48:	0e 94 9e 20 	call	0x413c	; 0x413c <__udivmodsi4>
    1d4c:	2d a7       	lds	r18, 0x7d
    1d4e:	3e a7       	lds	r19, 0x7e
    1d50:	4f a7       	lds	r20, 0x7f
    1d52:	58 ab       	sts	0x58, r21
    1d54:	69 a7       	lds	r22, 0x79
    1d56:	7a a7       	lds	r23, 0x7a
    1d58:	8b a7       	lds	r24, 0x7b
    1d5a:	9c a7       	lds	r25, 0x7c
    1d5c:	c7 01       	movw	r24, r14
    1d5e:	b6 01       	movw	r22, r12
    1d60:	a3 01       	movw	r20, r6
    1d62:	92 01       	movw	r18, r4
    1d64:	0e 94 9e 20 	call	0x413c	; 0x413c <__udivmodsi4>
    1d68:	ca 01       	movw	r24, r20
    1d6a:	b9 01       	movw	r22, r18
    1d6c:	29 a9       	sts	0x49, r18
    1d6e:	3a a9       	sts	0x4a, r19
    1d70:	4b a9       	sts	0x4b, r20
    1d72:	5c a9       	sts	0x4c, r21
    1d74:	0e 94 7f 20 	call	0x40fe	; 0x40fe <__mulsi3>
    1d78:	ab 01       	movw	r20, r22
    1d7a:	bc 01       	movw	r22, r24
    1d7c:	09 a5       	lds	r16, 0x69
    1d7e:	1a a5       	lds	r17, 0x6a
    1d80:	2b a5       	lds	r18, 0x6b
    1d82:	3c a5       	lds	r19, 0x6c
    1d84:	78 01       	movw	r14, r16
    1d86:	dd 24       	eor	r13, r13
    1d88:	cc 24       	eor	r12, r12
    1d8a:	0d a9       	sts	0x4d, r16
    1d8c:	1e a9       	sts	0x4e, r17
    1d8e:	2f a9       	sts	0x4f, r18
    1d90:	38 ad       	sts	0x68, r19
    1d92:	c9 01       	movw	r24, r18
    1d94:	aa 27       	eor	r26, r26
    1d96:	bb 27       	eor	r27, r27
    1d98:	c8 2a       	or	r12, r24
    1d9a:	d9 2a       	or	r13, r25
    1d9c:	ea 2a       	or	r14, r26
    1d9e:	fb 2a       	or	r15, r27
    1da0:	0d a5       	lds	r16, 0x6d
    1da2:	1e a5       	lds	r17, 0x6e
    1da4:	2f a5       	lds	r18, 0x6f
    1da6:	38 a9       	sts	0x48, r19
    1da8:	c4 16       	cp	r12, r20
    1daa:	d5 06       	cpc	r13, r21
    1dac:	e6 06       	cpc	r14, r22
    1dae:	f7 06       	cpc	r15, r23
    1db0:	38 f5       	brcc	.+78     	; 0x1e00 <__divdi3+0x440>
    1db2:	01 50       	subi	r16, 0x01	; 1
    1db4:	10 40       	sbci	r17, 0x00	; 0
    1db6:	20 40       	sbci	r18, 0x00	; 0
    1db8:	30 40       	sbci	r19, 0x00	; 0
    1dba:	09 a7       	lds	r16, 0x79
    1dbc:	1a a7       	lds	r17, 0x7a
    1dbe:	2b a7       	lds	r18, 0x7b
    1dc0:	3c a7       	lds	r19, 0x7c
    1dc2:	c8 0c       	add	r12, r8
    1dc4:	d9 1c       	adc	r13, r9
    1dc6:	ea 1c       	adc	r14, r10
    1dc8:	fb 1c       	adc	r15, r11
    1dca:	c8 14       	cp	r12, r8
    1dcc:	d9 04       	cpc	r13, r9
    1dce:	ea 04       	cpc	r14, r10
    1dd0:	fb 04       	cpc	r15, r11
    1dd2:	d0 f0       	brcs	.+52     	; 0x1e08 <__divdi3+0x448>
    1dd4:	c4 16       	cp	r12, r20
    1dd6:	d5 06       	cpc	r13, r21
    1dd8:	e6 06       	cpc	r14, r22
    1dda:	f7 06       	cpc	r15, r23
    1ddc:	a8 f4       	brcc	.+42     	; 0x1e08 <__divdi3+0x448>
    1dde:	0d a5       	lds	r16, 0x6d
    1de0:	1e a5       	lds	r17, 0x6e
    1de2:	2f a5       	lds	r18, 0x6f
    1de4:	38 a9       	sts	0x48, r19
    1de6:	02 50       	subi	r16, 0x02	; 2
    1de8:	10 40       	sbci	r17, 0x00	; 0
    1dea:	20 40       	sbci	r18, 0x00	; 0
    1dec:	30 40       	sbci	r19, 0x00	; 0
    1dee:	09 a7       	lds	r16, 0x79
    1df0:	1a a7       	lds	r17, 0x7a
    1df2:	2b a7       	lds	r18, 0x7b
    1df4:	3c a7       	lds	r19, 0x7c
    1df6:	c8 0c       	add	r12, r8
    1df8:	d9 1c       	adc	r13, r9
    1dfa:	ea 1c       	adc	r14, r10
    1dfc:	fb 1c       	adc	r15, r11
    1dfe:	04 c0       	rjmp	.+8      	; 0x1e08 <__divdi3+0x448>
    1e00:	09 a7       	lds	r16, 0x79
    1e02:	1a a7       	lds	r17, 0x7a
    1e04:	2b a7       	lds	r18, 0x7b
    1e06:	3c a7       	lds	r19, 0x7c
    1e08:	c4 1a       	sub	r12, r20
    1e0a:	d5 0a       	sbc	r13, r21
    1e0c:	e6 0a       	sbc	r14, r22
    1e0e:	f7 0a       	sbc	r15, r23
    1e10:	c7 01       	movw	r24, r14
    1e12:	b6 01       	movw	r22, r12
    1e14:	a3 01       	movw	r20, r6
    1e16:	92 01       	movw	r18, r4
    1e18:	0e 94 9e 20 	call	0x413c	; 0x413c <__udivmodsi4>
    1e1c:	2d a7       	lds	r18, 0x7d
    1e1e:	3e a7       	lds	r19, 0x7e
    1e20:	4f a7       	lds	r20, 0x7f
    1e22:	58 ab       	sts	0x58, r21
    1e24:	69 af       	sts	0x79, r22
    1e26:	7a af       	sts	0x7a, r23
    1e28:	8b af       	sts	0x7b, r24
    1e2a:	9c af       	sts	0x7c, r25
    1e2c:	c7 01       	movw	r24, r14
    1e2e:	b6 01       	movw	r22, r12
    1e30:	a3 01       	movw	r20, r6
    1e32:	92 01       	movw	r18, r4
    1e34:	0e 94 9e 20 	call	0x413c	; 0x413c <__udivmodsi4>
    1e38:	ca 01       	movw	r24, r20
    1e3a:	b9 01       	movw	r22, r18
    1e3c:	29 a9       	sts	0x49, r18
    1e3e:	3a a9       	sts	0x4a, r19
    1e40:	4b a9       	sts	0x4b, r20
    1e42:	5c a9       	sts	0x4c, r21
    1e44:	0e 94 7f 20 	call	0x40fe	; 0x40fe <__mulsi3>
    1e48:	6b 01       	movw	r12, r22
    1e4a:	7c 01       	movw	r14, r24
    1e4c:	49 ad       	sts	0x69, r20
    1e4e:	5a ad       	sts	0x6a, r21
    1e50:	6b ad       	sts	0x6b, r22
    1e52:	7c ad       	sts	0x6c, r23
    1e54:	9a 01       	movw	r18, r20
    1e56:	11 27       	eor	r17, r17
    1e58:	00 27       	eor	r16, r16
    1e5a:	4d a9       	sts	0x4d, r20
    1e5c:	5e a9       	sts	0x4e, r21
    1e5e:	6f a9       	sts	0x4f, r22
    1e60:	78 ad       	sts	0x68, r23
    1e62:	60 70       	andi	r22, 0x00	; 0
    1e64:	70 70       	andi	r23, 0x00	; 0
    1e66:	04 2b       	or	r16, r20
    1e68:	15 2b       	or	r17, r21
    1e6a:	26 2b       	or	r18, r22
    1e6c:	37 2b       	or	r19, r23
    1e6e:	8d a5       	lds	r24, 0x6d
    1e70:	9e a5       	lds	r25, 0x6e
    1e72:	af a5       	lds	r26, 0x6f
    1e74:	b8 a9       	sts	0x48, r27
    1e76:	0c 15       	cp	r16, r12
    1e78:	1d 05       	cpc	r17, r13
    1e7a:	2e 05       	cpc	r18, r14
    1e7c:	3f 05       	cpc	r19, r15
    1e7e:	c0 f4       	brcc	.+48     	; 0x1eb0 <__divdi3+0x4f0>
    1e80:	01 97       	sbiw	r24, 0x01	; 1
    1e82:	a1 09       	sbc	r26, r1
    1e84:	b1 09       	sbc	r27, r1
    1e86:	08 0d       	add	r16, r8
    1e88:	19 1d       	adc	r17, r9
    1e8a:	2a 1d       	adc	r18, r10
    1e8c:	3b 1d       	adc	r19, r11
    1e8e:	08 15       	cp	r16, r8
    1e90:	19 05       	cpc	r17, r9
    1e92:	2a 05       	cpc	r18, r10
    1e94:	3b 05       	cpc	r19, r11
    1e96:	60 f0       	brcs	.+24     	; 0x1eb0 <__divdi3+0x4f0>
    1e98:	0c 15       	cp	r16, r12
    1e9a:	1d 05       	cpc	r17, r13
    1e9c:	2e 05       	cpc	r18, r14
    1e9e:	3f 05       	cpc	r19, r15
    1ea0:	38 f4       	brcc	.+14     	; 0x1eb0 <__divdi3+0x4f0>
    1ea2:	8d a5       	lds	r24, 0x6d
    1ea4:	9e a5       	lds	r25, 0x6e
    1ea6:	af a5       	lds	r26, 0x6f
    1ea8:	b8 a9       	sts	0x48, r27
    1eaa:	02 97       	sbiw	r24, 0x02	; 2
    1eac:	a1 09       	sbc	r26, r1
    1eae:	b1 09       	sbc	r27, r1
    1eb0:	09 a5       	lds	r16, 0x69
    1eb2:	1a a5       	lds	r17, 0x6a
    1eb4:	2b a5       	lds	r18, 0x6b
    1eb6:	3c a5       	lds	r19, 0x6c
    1eb8:	78 01       	movw	r14, r16
    1eba:	dd 24       	eor	r13, r13
    1ebc:	cc 24       	eor	r12, r12
    1ebe:	c8 2a       	or	r12, r24
    1ec0:	d9 2a       	or	r13, r25
    1ec2:	ea 2a       	or	r14, r26
    1ec4:	fb 2a       	or	r15, r27
    1ec6:	b7 c4       	rjmp	.+2414   	; 0x2836 <__divdi3+0xe76>
    1ec8:	81 14       	cp	r8, r1
    1eca:	91 04       	cpc	r9, r1
    1ecc:	a1 04       	cpc	r10, r1
    1ece:	b1 04       	cpc	r11, r1
    1ed0:	51 f4       	brne	.+20     	; 0x1ee6 <__divdi3+0x526>
    1ed2:	61 e0       	ldi	r22, 0x01	; 1
    1ed4:	70 e0       	ldi	r23, 0x00	; 0
    1ed6:	80 e0       	ldi	r24, 0x00	; 0
    1ed8:	90 e0       	ldi	r25, 0x00	; 0
    1eda:	a5 01       	movw	r20, r10
    1edc:	94 01       	movw	r18, r8
    1ede:	0e 94 9e 20 	call	0x413c	; 0x413c <__udivmodsi4>
    1ee2:	49 01       	movw	r8, r18
    1ee4:	5a 01       	movw	r10, r20
    1ee6:	10 e0       	ldi	r17, 0x00	; 0
    1ee8:	81 16       	cp	r8, r17
    1eea:	10 e0       	ldi	r17, 0x00	; 0
    1eec:	91 06       	cpc	r9, r17
    1eee:	11 e0       	ldi	r17, 0x01	; 1
    1ef0:	a1 06       	cpc	r10, r17
    1ef2:	10 e0       	ldi	r17, 0x00	; 0
    1ef4:	b1 06       	cpc	r11, r17
    1ef6:	58 f4       	brcc	.+22     	; 0x1f0e <__divdi3+0x54e>
    1ef8:	2f ef       	ldi	r18, 0xFF	; 255
    1efa:	82 16       	cp	r8, r18
    1efc:	91 04       	cpc	r9, r1
    1efe:	a1 04       	cpc	r10, r1
    1f00:	b1 04       	cpc	r11, r1
    1f02:	09 f0       	breq	.+2      	; 0x1f06 <__divdi3+0x546>
    1f04:	90 f4       	brcc	.+36     	; 0x1f2a <__divdi3+0x56a>
    1f06:	80 e0       	ldi	r24, 0x00	; 0
    1f08:	90 e0       	ldi	r25, 0x00	; 0
    1f0a:	dc 01       	movw	r26, r24
    1f0c:	17 c0       	rjmp	.+46     	; 0x1f3c <__divdi3+0x57c>
    1f0e:	30 e0       	ldi	r19, 0x00	; 0
    1f10:	83 16       	cp	r8, r19
    1f12:	30 e0       	ldi	r19, 0x00	; 0
    1f14:	93 06       	cpc	r9, r19
    1f16:	30 e0       	ldi	r19, 0x00	; 0
    1f18:	a3 06       	cpc	r10, r19
    1f1a:	31 e0       	ldi	r19, 0x01	; 1
    1f1c:	b3 06       	cpc	r11, r19
    1f1e:	50 f4       	brcc	.+20     	; 0x1f34 <__divdi3+0x574>
    1f20:	80 e1       	ldi	r24, 0x10	; 16
    1f22:	90 e0       	ldi	r25, 0x00	; 0
    1f24:	a0 e0       	ldi	r26, 0x00	; 0
    1f26:	b0 e0       	ldi	r27, 0x00	; 0
    1f28:	09 c0       	rjmp	.+18     	; 0x1f3c <__divdi3+0x57c>
    1f2a:	88 e0       	ldi	r24, 0x08	; 8
    1f2c:	90 e0       	ldi	r25, 0x00	; 0
    1f2e:	a0 e0       	ldi	r26, 0x00	; 0
    1f30:	b0 e0       	ldi	r27, 0x00	; 0
    1f32:	04 c0       	rjmp	.+8      	; 0x1f3c <__divdi3+0x57c>
    1f34:	88 e1       	ldi	r24, 0x18	; 24
    1f36:	90 e0       	ldi	r25, 0x00	; 0
    1f38:	a0 e0       	ldi	r26, 0x00	; 0
    1f3a:	b0 e0       	ldi	r27, 0x00	; 0
    1f3c:	b5 01       	movw	r22, r10
    1f3e:	a4 01       	movw	r20, r8
    1f40:	08 2e       	mov	r0, r24
    1f42:	04 c0       	rjmp	.+8      	; 0x1f4c <__divdi3+0x58c>
    1f44:	76 95       	lsr	r23
    1f46:	67 95       	ror	r22
    1f48:	57 95       	ror	r21
    1f4a:	47 95       	ror	r20
    1f4c:	0a 94       	dec	r0
    1f4e:	d2 f7       	brpl	.-12     	; 0x1f44 <__divdi3+0x584>
    1f50:	fa 01       	movw	r30, r20
    1f52:	ee 56       	subi	r30, 0x6E	; 110
    1f54:	ff 4f       	sbci	r31, 0xFF	; 255
    1f56:	20 81       	ld	r18, Z
    1f58:	ac 01       	movw	r20, r24
    1f5a:	bd 01       	movw	r22, r26
    1f5c:	42 0f       	add	r20, r18
    1f5e:	51 1d       	adc	r21, r1
    1f60:	61 1d       	adc	r22, r1
    1f62:	71 1d       	adc	r23, r1
    1f64:	80 e2       	ldi	r24, 0x20	; 32
    1f66:	90 e0       	ldi	r25, 0x00	; 0
    1f68:	a0 e0       	ldi	r26, 0x00	; 0
    1f6a:	b0 e0       	ldi	r27, 0x00	; 0
    1f6c:	84 1b       	sub	r24, r20
    1f6e:	95 0b       	sbc	r25, r21
    1f70:	a6 0b       	sbc	r26, r22
    1f72:	b7 0b       	sbc	r27, r23
    1f74:	51 f4       	brne	.+20     	; 0x1f8a <__divdi3+0x5ca>
    1f76:	c8 18       	sub	r12, r8
    1f78:	d9 08       	sbc	r13, r9
    1f7a:	ea 08       	sbc	r14, r10
    1f7c:	fb 08       	sbc	r15, r11
    1f7e:	f1 e0       	ldi	r31, 0x01	; 1
    1f80:	4f 2e       	mov	r4, r31
    1f82:	51 2c       	mov	r5, r1
    1f84:	61 2c       	mov	r6, r1
    1f86:	71 2c       	mov	r7, r1
    1f88:	28 c1       	rjmp	.+592    	; 0x21da <__divdi3+0x81a>
    1f8a:	08 2e       	mov	r0, r24
    1f8c:	04 c0       	rjmp	.+8      	; 0x1f96 <__divdi3+0x5d6>
    1f8e:	88 0c       	add	r8, r8
    1f90:	99 1c       	adc	r9, r9
    1f92:	aa 1c       	adc	r10, r10
    1f94:	bb 1c       	adc	r11, r11
    1f96:	0a 94       	dec	r0
    1f98:	d2 f7       	brpl	.-12     	; 0x1f8e <__divdi3+0x5ce>
    1f9a:	97 01       	movw	r18, r14
    1f9c:	86 01       	movw	r16, r12
    1f9e:	04 2e       	mov	r0, r20
    1fa0:	04 c0       	rjmp	.+8      	; 0x1faa <__divdi3+0x5ea>
    1fa2:	36 95       	lsr	r19
    1fa4:	27 95       	ror	r18
    1fa6:	17 95       	ror	r17
    1fa8:	07 95       	ror	r16
    1faa:	0a 94       	dec	r0
    1fac:	d2 f7       	brpl	.-12     	; 0x1fa2 <__divdi3+0x5e2>
    1fae:	09 ab       	sts	0x59, r16
    1fb0:	1a ab       	sts	0x5a, r17
    1fb2:	2b ab       	sts	0x5b, r18
    1fb4:	3c ab       	sts	0x5c, r19
    1fb6:	97 01       	movw	r18, r14
    1fb8:	86 01       	movw	r16, r12
    1fba:	08 2e       	mov	r0, r24
    1fbc:	04 c0       	rjmp	.+8      	; 0x1fc6 <__divdi3+0x606>
    1fbe:	00 0f       	add	r16, r16
    1fc0:	11 1f       	adc	r17, r17
    1fc2:	22 1f       	adc	r18, r18
    1fc4:	33 1f       	adc	r19, r19
    1fc6:	0a 94       	dec	r0
    1fc8:	d2 f7       	brpl	.-12     	; 0x1fbe <__divdi3+0x5fe>
    1fca:	0d a7       	lds	r16, 0x7d
    1fcc:	1e a7       	lds	r17, 0x7e
    1fce:	2f a7       	lds	r18, 0x7f
    1fd0:	38 ab       	sts	0x58, r19
    1fd2:	ed a8       	sts	0x8d, r30
    1fd4:	fe a8       	sts	0x8e, r31
    1fd6:	0f a9       	sts	0x4f, r16
    1fd8:	18 ad       	sts	0x68, r17
    1fda:	04 c0       	rjmp	.+8      	; 0x1fe4 <__divdi3+0x624>
    1fdc:	16 95       	lsr	r17
    1fde:	07 95       	ror	r16
    1fe0:	f7 94       	ror	r15
    1fe2:	e7 94       	ror	r14
    1fe4:	4a 95       	dec	r20
    1fe6:	d2 f7       	brpl	.-12     	; 0x1fdc <__divdi3+0x61c>
    1fe8:	b8 01       	movw	r22, r16
    1fea:	a7 01       	movw	r20, r14
    1fec:	0d a5       	lds	r16, 0x6d
    1fee:	1e a5       	lds	r17, 0x6e
    1ff0:	2f a5       	lds	r18, 0x6f
    1ff2:	38 a9       	sts	0x48, r19
    1ff4:	04 2b       	or	r16, r20
    1ff6:	15 2b       	or	r17, r21
    1ff8:	26 2b       	or	r18, r22
    1ffa:	37 2b       	or	r19, r23
    1ffc:	0d a7       	lds	r16, 0x7d
    1ffe:	1e a7       	lds	r17, 0x7e
    2000:	2f a7       	lds	r18, 0x7f
    2002:	38 ab       	sts	0x58, r19
    2004:	ed a8       	sts	0x8d, r30
    2006:	fe a8       	sts	0x8e, r31
    2008:	0f a9       	sts	0x4f, r16
    200a:	18 ad       	sts	0x68, r17
    200c:	04 c0       	rjmp	.+8      	; 0x2016 <__divdi3+0x656>
    200e:	ee 0c       	add	r14, r14
    2010:	ff 1c       	adc	r15, r15
    2012:	00 1f       	adc	r16, r16
    2014:	11 1f       	adc	r17, r17
    2016:	8a 95       	dec	r24
    2018:	d2 f7       	brpl	.-12     	; 0x200e <__divdi3+0x64e>
    201a:	ed aa       	sts	0x9d, r30
    201c:	fe aa       	sts	0x9e, r31
    201e:	0f ab       	sts	0x5f, r16
    2020:	18 af       	sts	0x78, r17
    2022:	25 01       	movw	r4, r10
    2024:	66 24       	eor	r6, r6
    2026:	77 24       	eor	r7, r7
    2028:	95 01       	movw	r18, r10
    202a:	84 01       	movw	r16, r8
    202c:	20 70       	andi	r18, 0x00	; 0
    202e:	30 70       	andi	r19, 0x00	; 0
    2030:	09 af       	sts	0x79, r16
    2032:	1a af       	sts	0x7a, r17
    2034:	2b af       	sts	0x7b, r18
    2036:	3c af       	sts	0x7c, r19
    2038:	69 a9       	sts	0x49, r22
    203a:	7a a9       	sts	0x4a, r23
    203c:	8b a9       	sts	0x4b, r24
    203e:	9c a9       	sts	0x4c, r25
    2040:	a3 01       	movw	r20, r6
    2042:	92 01       	movw	r18, r4
    2044:	0e 94 9e 20 	call	0x413c	; 0x413c <__udivmodsi4>
    2048:	29 a7       	lds	r18, 0x79
    204a:	3a a7       	lds	r19, 0x7a
    204c:	4b a7       	lds	r20, 0x7b
    204e:	5c a7       	lds	r21, 0x7c
    2050:	6b 01       	movw	r12, r22
    2052:	7c 01       	movw	r14, r24
    2054:	69 a9       	sts	0x49, r22
    2056:	7a a9       	sts	0x4a, r23
    2058:	8b a9       	sts	0x4b, r24
    205a:	9c a9       	sts	0x4c, r25
    205c:	a3 01       	movw	r20, r6
    205e:	92 01       	movw	r18, r4
    2060:	0e 94 9e 20 	call	0x413c	; 0x413c <__udivmodsi4>
    2064:	ca 01       	movw	r24, r20
    2066:	b9 01       	movw	r22, r18
    2068:	29 ad       	sts	0x69, r18
    206a:	3a ad       	sts	0x6a, r19
    206c:	4b ad       	sts	0x6b, r20
    206e:	5c ad       	sts	0x6c, r21
    2070:	0e 94 7f 20 	call	0x40fe	; 0x40fe <__mulsi3>
    2074:	ab 01       	movw	r20, r22
    2076:	bc 01       	movw	r22, r24
    2078:	76 01       	movw	r14, r12
    207a:	dd 24       	eor	r13, r13
    207c:	cc 24       	eor	r12, r12
    207e:	0d a5       	lds	r16, 0x6d
    2080:	1e a5       	lds	r17, 0x6e
    2082:	2f a5       	lds	r18, 0x6f
    2084:	38 a9       	sts	0x48, r19
    2086:	c9 01       	movw	r24, r18
    2088:	aa 27       	eor	r26, r26
    208a:	bb 27       	eor	r27, r27
    208c:	c8 2a       	or	r12, r24
    208e:	d9 2a       	or	r13, r25
    2090:	ea 2a       	or	r14, r26
    2092:	fb 2a       	or	r15, r27
    2094:	09 a5       	lds	r16, 0x69
    2096:	1a a5       	lds	r17, 0x6a
    2098:	2b a5       	lds	r18, 0x6b
    209a:	3c a5       	lds	r19, 0x6c
    209c:	c4 16       	cp	r12, r20
    209e:	d5 06       	cpc	r13, r21
    20a0:	e6 06       	cpc	r14, r22
    20a2:	f7 06       	cpc	r15, r23
    20a4:	38 f5       	brcc	.+78     	; 0x20f4 <__divdi3+0x734>
    20a6:	01 50       	subi	r16, 0x01	; 1
    20a8:	10 40       	sbci	r17, 0x00	; 0
    20aa:	20 40       	sbci	r18, 0x00	; 0
    20ac:	30 40       	sbci	r19, 0x00	; 0
    20ae:	09 ab       	sts	0x59, r16
    20b0:	1a ab       	sts	0x5a, r17
    20b2:	2b ab       	sts	0x5b, r18
    20b4:	3c ab       	sts	0x5c, r19
    20b6:	c8 0c       	add	r12, r8
    20b8:	d9 1c       	adc	r13, r9
    20ba:	ea 1c       	adc	r14, r10
    20bc:	fb 1c       	adc	r15, r11
    20be:	c8 14       	cp	r12, r8
    20c0:	d9 04       	cpc	r13, r9
    20c2:	ea 04       	cpc	r14, r10
    20c4:	fb 04       	cpc	r15, r11
    20c6:	d0 f0       	brcs	.+52     	; 0x20fc <__divdi3+0x73c>
    20c8:	c4 16       	cp	r12, r20
    20ca:	d5 06       	cpc	r13, r21
    20cc:	e6 06       	cpc	r14, r22
    20ce:	f7 06       	cpc	r15, r23
    20d0:	a8 f4       	brcc	.+42     	; 0x20fc <__divdi3+0x73c>
    20d2:	09 a5       	lds	r16, 0x69
    20d4:	1a a5       	lds	r17, 0x6a
    20d6:	2b a5       	lds	r18, 0x6b
    20d8:	3c a5       	lds	r19, 0x6c
    20da:	02 50       	subi	r16, 0x02	; 2
    20dc:	10 40       	sbci	r17, 0x00	; 0
    20de:	20 40       	sbci	r18, 0x00	; 0
    20e0:	30 40       	sbci	r19, 0x00	; 0
    20e2:	09 ab       	sts	0x59, r16
    20e4:	1a ab       	sts	0x5a, r17
    20e6:	2b ab       	sts	0x5b, r18
    20e8:	3c ab       	sts	0x5c, r19
    20ea:	c8 0c       	add	r12, r8
    20ec:	d9 1c       	adc	r13, r9
    20ee:	ea 1c       	adc	r14, r10
    20f0:	fb 1c       	adc	r15, r11
    20f2:	04 c0       	rjmp	.+8      	; 0x20fc <__divdi3+0x73c>
    20f4:	09 ab       	sts	0x59, r16
    20f6:	1a ab       	sts	0x5a, r17
    20f8:	2b ab       	sts	0x5b, r18
    20fa:	3c ab       	sts	0x5c, r19
    20fc:	c4 1a       	sub	r12, r20
    20fe:	d5 0a       	sbc	r13, r21
    2100:	e6 0a       	sbc	r14, r22
    2102:	f7 0a       	sbc	r15, r23
    2104:	c7 01       	movw	r24, r14
    2106:	b6 01       	movw	r22, r12
    2108:	a3 01       	movw	r20, r6
    210a:	92 01       	movw	r18, r4
    210c:	0e 94 9e 20 	call	0x413c	; 0x413c <__udivmodsi4>
    2110:	29 a7       	lds	r18, 0x79
    2112:	3a a7       	lds	r19, 0x7a
    2114:	4b a7       	lds	r20, 0x7b
    2116:	5c a7       	lds	r21, 0x7c
    2118:	21 96       	adiw	r28, 0x01	; 1
    211a:	6c af       	sts	0x7c, r22
    211c:	7d af       	sts	0x7d, r23
    211e:	8e af       	sts	0x7e, r24
    2120:	9f af       	sts	0x7f, r25
    2122:	21 97       	sbiw	r28, 0x01	; 1
    2124:	c7 01       	movw	r24, r14
    2126:	b6 01       	movw	r22, r12
    2128:	a3 01       	movw	r20, r6
    212a:	92 01       	movw	r18, r4
    212c:	0e 94 9e 20 	call	0x413c	; 0x413c <__udivmodsi4>
    2130:	ca 01       	movw	r24, r20
    2132:	b9 01       	movw	r22, r18
    2134:	29 ad       	sts	0x69, r18
    2136:	3a ad       	sts	0x6a, r19
    2138:	4b ad       	sts	0x6b, r20
    213a:	5c ad       	sts	0x6c, r21
    213c:	0e 94 7f 20 	call	0x40fe	; 0x40fe <__mulsi3>
    2140:	8b 01       	movw	r16, r22
    2142:	9c 01       	movw	r18, r24
    2144:	21 96       	adiw	r28, 0x01	; 1
    2146:	4c ad       	sts	0x6c, r20
    2148:	5d ad       	sts	0x6d, r21
    214a:	6e ad       	sts	0x6e, r22
    214c:	7f ad       	sts	0x6f, r23
    214e:	21 97       	sbiw	r28, 0x01	; 1
    2150:	da 01       	movw	r26, r20
    2152:	99 27       	eor	r25, r25
    2154:	88 27       	eor	r24, r24
    2156:	4d a5       	lds	r20, 0x6d
    2158:	5e a5       	lds	r21, 0x6e
    215a:	6f a5       	lds	r22, 0x6f
    215c:	78 a9       	sts	0x48, r23
    215e:	60 70       	andi	r22, 0x00	; 0
    2160:	70 70       	andi	r23, 0x00	; 0
    2162:	84 2b       	or	r24, r20
    2164:	95 2b       	or	r25, r21
    2166:	a6 2b       	or	r26, r22
    2168:	b7 2b       	or	r27, r23
    216a:	49 a5       	lds	r20, 0x69
    216c:	5a a5       	lds	r21, 0x6a
    216e:	6b a5       	lds	r22, 0x6b
    2170:	7c a5       	lds	r23, 0x6c
    2172:	80 17       	cp	r24, r16
    2174:	91 07       	cpc	r25, r17
    2176:	a2 07       	cpc	r26, r18
    2178:	b3 07       	cpc	r27, r19
    217a:	f0 f4       	brcc	.+60     	; 0x21b8 <__divdi3+0x7f8>
    217c:	41 50       	subi	r20, 0x01	; 1
    217e:	50 40       	sbci	r21, 0x00	; 0
    2180:	60 40       	sbci	r22, 0x00	; 0
    2182:	70 40       	sbci	r23, 0x00	; 0
    2184:	88 0d       	add	r24, r8
    2186:	99 1d       	adc	r25, r9
    2188:	aa 1d       	adc	r26, r10
    218a:	bb 1d       	adc	r27, r11
    218c:	88 15       	cp	r24, r8
    218e:	99 05       	cpc	r25, r9
    2190:	aa 05       	cpc	r26, r10
    2192:	bb 05       	cpc	r27, r11
    2194:	88 f0       	brcs	.+34     	; 0x21b8 <__divdi3+0x7f8>
    2196:	80 17       	cp	r24, r16
    2198:	91 07       	cpc	r25, r17
    219a:	a2 07       	cpc	r26, r18
    219c:	b3 07       	cpc	r27, r19
    219e:	60 f4       	brcc	.+24     	; 0x21b8 <__divdi3+0x7f8>
    21a0:	49 a5       	lds	r20, 0x69
    21a2:	5a a5       	lds	r21, 0x6a
    21a4:	6b a5       	lds	r22, 0x6b
    21a6:	7c a5       	lds	r23, 0x6c
    21a8:	42 50       	subi	r20, 0x02	; 2
    21aa:	50 40       	sbci	r21, 0x00	; 0
    21ac:	60 40       	sbci	r22, 0x00	; 0
    21ae:	70 40       	sbci	r23, 0x00	; 0
    21b0:	88 0d       	add	r24, r8
    21b2:	99 1d       	adc	r25, r9
    21b4:	aa 1d       	adc	r26, r10
    21b6:	bb 1d       	adc	r27, r11
    21b8:	6c 01       	movw	r12, r24
    21ba:	7d 01       	movw	r14, r26
    21bc:	c0 1a       	sub	r12, r16
    21be:	d1 0a       	sbc	r13, r17
    21c0:	e2 0a       	sbc	r14, r18
    21c2:	f3 0a       	sbc	r15, r19
    21c4:	09 a9       	sts	0x49, r16
    21c6:	1a a9       	sts	0x4a, r17
    21c8:	2b a9       	sts	0x4b, r18
    21ca:	3c a9       	sts	0x4c, r19
    21cc:	38 01       	movw	r6, r16
    21ce:	55 24       	eor	r5, r5
    21d0:	44 24       	eor	r4, r4
    21d2:	44 2a       	or	r4, r20
    21d4:	55 2a       	or	r5, r21
    21d6:	66 2a       	or	r6, r22
    21d8:	77 2a       	or	r7, r23
    21da:	85 01       	movw	r16, r10
    21dc:	22 27       	eor	r18, r18
    21de:	33 27       	eor	r19, r19
    21e0:	0d a7       	lds	r16, 0x7d
    21e2:	1e a7       	lds	r17, 0x7e
    21e4:	2f a7       	lds	r18, 0x7f
    21e6:	38 ab       	sts	0x58, r19
    21e8:	95 01       	movw	r18, r10
    21ea:	84 01       	movw	r16, r8
    21ec:	20 70       	andi	r18, 0x00	; 0
    21ee:	30 70       	andi	r19, 0x00	; 0
    21f0:	09 af       	sts	0x79, r16
    21f2:	1a af       	sts	0x7a, r17
    21f4:	2b af       	sts	0x7b, r18
    21f6:	3c af       	sts	0x7c, r19
    21f8:	c7 01       	movw	r24, r14
    21fa:	b6 01       	movw	r22, r12
    21fc:	2d a5       	lds	r18, 0x6d
    21fe:	3e a5       	lds	r19, 0x6e
    2200:	4f a5       	lds	r20, 0x6f
    2202:	58 a9       	sts	0x48, r21
    2204:	0e 94 9e 20 	call	0x413c	; 0x413c <__udivmodsi4>
    2208:	29 a7       	lds	r18, 0x79
    220a:	3a a7       	lds	r19, 0x7a
    220c:	4b a7       	lds	r20, 0x7b
    220e:	5c a7       	lds	r21, 0x7c
    2210:	69 ab       	sts	0x59, r22
    2212:	7a ab       	sts	0x5a, r23
    2214:	8b ab       	sts	0x5b, r24
    2216:	9c ab       	sts	0x5c, r25
    2218:	c7 01       	movw	r24, r14
    221a:	b6 01       	movw	r22, r12
    221c:	2d a5       	lds	r18, 0x6d
    221e:	3e a5       	lds	r19, 0x6e
    2220:	4f a5       	lds	r20, 0x6f
    2222:	58 a9       	sts	0x48, r21
    2224:	0e 94 9e 20 	call	0x413c	; 0x413c <__udivmodsi4>
    2228:	ca 01       	movw	r24, r20
    222a:	b9 01       	movw	r22, r18
    222c:	29 ad       	sts	0x69, r18
    222e:	3a ad       	sts	0x6a, r19
    2230:	4b ad       	sts	0x6b, r20
    2232:	5c ad       	sts	0x6c, r21
    2234:	0e 94 7f 20 	call	0x40fe	; 0x40fe <__mulsi3>
    2238:	ab 01       	movw	r20, r22
    223a:	bc 01       	movw	r22, r24
    223c:	09 a9       	sts	0x49, r16
    223e:	1a a9       	sts	0x4a, r17
    2240:	2b a9       	sts	0x4b, r18
    2242:	3c a9       	sts	0x4c, r19
    2244:	78 01       	movw	r14, r16
    2246:	dd 24       	eor	r13, r13
    2248:	cc 24       	eor	r12, r12
    224a:	0d a9       	sts	0x4d, r16
    224c:	1e a9       	sts	0x4e, r17
    224e:	2f a9       	sts	0x4f, r18
    2250:	38 ad       	sts	0x68, r19
    2252:	c9 01       	movw	r24, r18
    2254:	aa 27       	eor	r26, r26
    2256:	bb 27       	eor	r27, r27
    2258:	c8 2a       	or	r12, r24
    225a:	d9 2a       	or	r13, r25
    225c:	ea 2a       	or	r14, r26
    225e:	fb 2a       	or	r15, r27
    2260:	09 a5       	lds	r16, 0x69
    2262:	1a a5       	lds	r17, 0x6a
    2264:	2b a5       	lds	r18, 0x6b
    2266:	3c a5       	lds	r19, 0x6c
    2268:	c4 16       	cp	r12, r20
    226a:	d5 06       	cpc	r13, r21
    226c:	e6 06       	cpc	r14, r22
    226e:	f7 06       	cpc	r15, r23
    2270:	38 f5       	brcc	.+78     	; 0x22c0 <__divdi3+0x900>
    2272:	01 50       	subi	r16, 0x01	; 1
    2274:	10 40       	sbci	r17, 0x00	; 0
    2276:	20 40       	sbci	r18, 0x00	; 0
    2278:	30 40       	sbci	r19, 0x00	; 0
    227a:	09 ab       	sts	0x59, r16
    227c:	1a ab       	sts	0x5a, r17
    227e:	2b ab       	sts	0x5b, r18
    2280:	3c ab       	sts	0x5c, r19
    2282:	c8 0c       	add	r12, r8
    2284:	d9 1c       	adc	r13, r9
    2286:	ea 1c       	adc	r14, r10
    2288:	fb 1c       	adc	r15, r11
    228a:	c8 14       	cp	r12, r8
    228c:	d9 04       	cpc	r13, r9
    228e:	ea 04       	cpc	r14, r10
    2290:	fb 04       	cpc	r15, r11
    2292:	d0 f0       	brcs	.+52     	; 0x22c8 <__divdi3+0x908>
    2294:	c4 16       	cp	r12, r20
    2296:	d5 06       	cpc	r13, r21
    2298:	e6 06       	cpc	r14, r22
    229a:	f7 06       	cpc	r15, r23
    229c:	a8 f4       	brcc	.+42     	; 0x22c8 <__divdi3+0x908>
    229e:	09 a5       	lds	r16, 0x69
    22a0:	1a a5       	lds	r17, 0x6a
    22a2:	2b a5       	lds	r18, 0x6b
    22a4:	3c a5       	lds	r19, 0x6c
    22a6:	02 50       	subi	r16, 0x02	; 2
    22a8:	10 40       	sbci	r17, 0x00	; 0
    22aa:	20 40       	sbci	r18, 0x00	; 0
    22ac:	30 40       	sbci	r19, 0x00	; 0
    22ae:	09 ab       	sts	0x59, r16
    22b0:	1a ab       	sts	0x5a, r17
    22b2:	2b ab       	sts	0x5b, r18
    22b4:	3c ab       	sts	0x5c, r19
    22b6:	c8 0c       	add	r12, r8
    22b8:	d9 1c       	adc	r13, r9
    22ba:	ea 1c       	adc	r14, r10
    22bc:	fb 1c       	adc	r15, r11
    22be:	04 c0       	rjmp	.+8      	; 0x22c8 <__divdi3+0x908>
    22c0:	09 ab       	sts	0x59, r16
    22c2:	1a ab       	sts	0x5a, r17
    22c4:	2b ab       	sts	0x5b, r18
    22c6:	3c ab       	sts	0x5c, r19
    22c8:	c4 1a       	sub	r12, r20
    22ca:	d5 0a       	sbc	r13, r21
    22cc:	e6 0a       	sbc	r14, r22
    22ce:	f7 0a       	sbc	r15, r23
    22d0:	c7 01       	movw	r24, r14
    22d2:	b6 01       	movw	r22, r12
    22d4:	2d a5       	lds	r18, 0x6d
    22d6:	3e a5       	lds	r19, 0x6e
    22d8:	4f a5       	lds	r20, 0x6f
    22da:	58 a9       	sts	0x48, r21
    22dc:	0e 94 9e 20 	call	0x413c	; 0x413c <__udivmodsi4>
    22e0:	29 a7       	lds	r18, 0x79
    22e2:	3a a7       	lds	r19, 0x7a
    22e4:	4b a7       	lds	r20, 0x7b
    22e6:	5c a7       	lds	r21, 0x7c
    22e8:	21 96       	adiw	r28, 0x01	; 1
    22ea:	6c af       	sts	0x7c, r22
    22ec:	7d af       	sts	0x7d, r23
    22ee:	8e af       	sts	0x7e, r24
    22f0:	9f af       	sts	0x7f, r25
    22f2:	21 97       	sbiw	r28, 0x01	; 1
    22f4:	c7 01       	movw	r24, r14
    22f6:	b6 01       	movw	r22, r12
    22f8:	2d a5       	lds	r18, 0x6d
    22fa:	3e a5       	lds	r19, 0x6e
    22fc:	4f a5       	lds	r20, 0x6f
    22fe:	58 a9       	sts	0x48, r21
    2300:	0e 94 9e 20 	call	0x413c	; 0x413c <__udivmodsi4>
    2304:	ca 01       	movw	r24, r20
    2306:	b9 01       	movw	r22, r18
    2308:	29 ad       	sts	0x69, r18
    230a:	3a ad       	sts	0x6a, r19
    230c:	4b ad       	sts	0x6b, r20
    230e:	5c ad       	sts	0x6c, r21
    2310:	0e 94 7f 20 	call	0x40fe	; 0x40fe <__mulsi3>
    2314:	8b 01       	movw	r16, r22
    2316:	9c 01       	movw	r18, r24
    2318:	21 96       	adiw	r28, 0x01	; 1
    231a:	4c ad       	sts	0x6c, r20
    231c:	5d ad       	sts	0x6d, r21
    231e:	6e ad       	sts	0x6e, r22
    2320:	7f ad       	sts	0x6f, r23
    2322:	21 97       	sbiw	r28, 0x01	; 1
    2324:	da 01       	movw	r26, r20
    2326:	99 27       	eor	r25, r25
    2328:	88 27       	eor	r24, r24
    232a:	4d a9       	sts	0x4d, r20
    232c:	5e a9       	sts	0x4e, r21
    232e:	6f a9       	sts	0x4f, r22
    2330:	78 ad       	sts	0x68, r23
    2332:	60 70       	andi	r22, 0x00	; 0
    2334:	70 70       	andi	r23, 0x00	; 0
    2336:	84 2b       	or	r24, r20
    2338:	95 2b       	or	r25, r21
    233a:	a6 2b       	or	r26, r22
    233c:	b7 2b       	or	r27, r23
    233e:	49 a5       	lds	r20, 0x69
    2340:	5a a5       	lds	r21, 0x6a
    2342:	6b a5       	lds	r22, 0x6b
    2344:	7c a5       	lds	r23, 0x6c
    2346:	80 17       	cp	r24, r16
    2348:	91 07       	cpc	r25, r17
    234a:	a2 07       	cpc	r26, r18
    234c:	b3 07       	cpc	r27, r19
    234e:	d0 f4       	brcc	.+52     	; 0x2384 <__divdi3+0x9c4>
    2350:	41 50       	subi	r20, 0x01	; 1
    2352:	50 40       	sbci	r21, 0x00	; 0
    2354:	60 40       	sbci	r22, 0x00	; 0
    2356:	70 40       	sbci	r23, 0x00	; 0
    2358:	88 0d       	add	r24, r8
    235a:	99 1d       	adc	r25, r9
    235c:	aa 1d       	adc	r26, r10
    235e:	bb 1d       	adc	r27, r11
    2360:	88 15       	cp	r24, r8
    2362:	99 05       	cpc	r25, r9
    2364:	aa 05       	cpc	r26, r10
    2366:	bb 05       	cpc	r27, r11
    2368:	68 f0       	brcs	.+26     	; 0x2384 <__divdi3+0x9c4>
    236a:	80 17       	cp	r24, r16
    236c:	91 07       	cpc	r25, r17
    236e:	a2 07       	cpc	r26, r18
    2370:	b3 07       	cpc	r27, r19
    2372:	40 f4       	brcc	.+16     	; 0x2384 <__divdi3+0x9c4>
    2374:	49 a5       	lds	r20, 0x69
    2376:	5a a5       	lds	r21, 0x6a
    2378:	6b a5       	lds	r22, 0x6b
    237a:	7c a5       	lds	r23, 0x6c
    237c:	42 50       	subi	r20, 0x02	; 2
    237e:	50 40       	sbci	r21, 0x00	; 0
    2380:	60 40       	sbci	r22, 0x00	; 0
    2382:	70 40       	sbci	r23, 0x00	; 0
    2384:	09 a9       	sts	0x49, r16
    2386:	1a a9       	sts	0x4a, r17
    2388:	2b a9       	sts	0x4b, r18
    238a:	3c a9       	sts	0x4c, r19
    238c:	78 01       	movw	r14, r16
    238e:	dd 24       	eor	r13, r13
    2390:	cc 24       	eor	r12, r12
    2392:	c4 2a       	or	r12, r20
    2394:	d5 2a       	or	r13, r21
    2396:	e6 2a       	or	r14, r22
    2398:	f7 2a       	or	r15, r23
    239a:	50 c2       	rjmp	.+1184   	; 0x283c <__divdi3+0xe7c>
    239c:	c8 16       	cp	r12, r24
    239e:	d9 06       	cpc	r13, r25
    23a0:	ea 06       	cpc	r14, r26
    23a2:	fb 06       	cpc	r15, r27
    23a4:	08 f4       	brcc	.+2      	; 0x23a8 <__divdi3+0x9e8>
    23a6:	37 c2       	rjmp	.+1134   	; 0x2816 <__divdi3+0xe56>
    23a8:	80 30       	cpi	r24, 0x00	; 0
    23aa:	10 e0       	ldi	r17, 0x00	; 0
    23ac:	91 07       	cpc	r25, r17
    23ae:	11 e0       	ldi	r17, 0x01	; 1
    23b0:	a1 07       	cpc	r26, r17
    23b2:	10 e0       	ldi	r17, 0x00	; 0
    23b4:	b1 07       	cpc	r27, r17
    23b6:	50 f4       	brcc	.+20     	; 0x23cc <__divdi3+0xa0c>
    23b8:	8f 3f       	cpi	r24, 0xFF	; 255
    23ba:	91 05       	cpc	r25, r1
    23bc:	a1 05       	cpc	r26, r1
    23be:	b1 05       	cpc	r27, r1
    23c0:	09 f0       	breq	.+2      	; 0x23c4 <__divdi3+0xa04>
    23c2:	88 f4       	brcc	.+34     	; 0x23e6 <__divdi3+0xa26>
    23c4:	00 e0       	ldi	r16, 0x00	; 0
    23c6:	10 e0       	ldi	r17, 0x00	; 0
    23c8:	98 01       	movw	r18, r16
    23ca:	16 c0       	rjmp	.+44     	; 0x23f8 <__divdi3+0xa38>
    23cc:	80 30       	cpi	r24, 0x00	; 0
    23ce:	20 e0       	ldi	r18, 0x00	; 0
    23d0:	92 07       	cpc	r25, r18
    23d2:	20 e0       	ldi	r18, 0x00	; 0
    23d4:	a2 07       	cpc	r26, r18
    23d6:	21 e0       	ldi	r18, 0x01	; 1
    23d8:	b2 07       	cpc	r27, r18
    23da:	50 f4       	brcc	.+20     	; 0x23f0 <__divdi3+0xa30>
    23dc:	00 e1       	ldi	r16, 0x10	; 16
    23de:	10 e0       	ldi	r17, 0x00	; 0
    23e0:	20 e0       	ldi	r18, 0x00	; 0
    23e2:	30 e0       	ldi	r19, 0x00	; 0
    23e4:	09 c0       	rjmp	.+18     	; 0x23f8 <__divdi3+0xa38>
    23e6:	08 e0       	ldi	r16, 0x08	; 8
    23e8:	10 e0       	ldi	r17, 0x00	; 0
    23ea:	20 e0       	ldi	r18, 0x00	; 0
    23ec:	30 e0       	ldi	r19, 0x00	; 0
    23ee:	04 c0       	rjmp	.+8      	; 0x23f8 <__divdi3+0xa38>
    23f0:	08 e1       	ldi	r16, 0x18	; 24
    23f2:	10 e0       	ldi	r17, 0x00	; 0
    23f4:	20 e0       	ldi	r18, 0x00	; 0
    23f6:	30 e0       	ldi	r19, 0x00	; 0
    23f8:	ac 01       	movw	r20, r24
    23fa:	bd 01       	movw	r22, r26
    23fc:	00 2e       	mov	r0, r16
    23fe:	04 c0       	rjmp	.+8      	; 0x2408 <__divdi3+0xa48>
    2400:	76 95       	lsr	r23
    2402:	67 95       	ror	r22
    2404:	57 95       	ror	r21
    2406:	47 95       	ror	r20
    2408:	0a 94       	dec	r0
    240a:	d2 f7       	brpl	.-12     	; 0x2400 <__divdi3+0xa40>
    240c:	fa 01       	movw	r30, r20
    240e:	ee 56       	subi	r30, 0x6E	; 110
    2410:	ff 4f       	sbci	r31, 0xFF	; 255
    2412:	40 81       	ld	r20, Z
    2414:	04 0f       	add	r16, r20
    2416:	11 1d       	adc	r17, r1
    2418:	21 1d       	adc	r18, r1
    241a:	31 1d       	adc	r19, r1
    241c:	40 e2       	ldi	r20, 0x20	; 32
    241e:	50 e0       	ldi	r21, 0x00	; 0
    2420:	60 e0       	ldi	r22, 0x00	; 0
    2422:	70 e0       	ldi	r23, 0x00	; 0
    2424:	40 1b       	sub	r20, r16
    2426:	51 0b       	sbc	r21, r17
    2428:	62 0b       	sbc	r22, r18
    242a:	73 0b       	sbc	r23, r19
    242c:	a1 f4       	brne	.+40     	; 0x2456 <__divdi3+0xa96>
    242e:	8c 15       	cp	r24, r12
    2430:	9d 05       	cpc	r25, r13
    2432:	ae 05       	cpc	r26, r14
    2434:	bf 05       	cpc	r27, r15
    2436:	08 f4       	brcc	.+2      	; 0x243a <__divdi3+0xa7a>
    2438:	f5 c1       	rjmp	.+1002   	; 0x2824 <__divdi3+0xe64>
    243a:	ed a8       	sts	0x8d, r30
    243c:	fe a8       	sts	0x8e, r31
    243e:	0f a9       	sts	0x4f, r16
    2440:	18 ad       	sts	0x68, r17
    2442:	44 24       	eor	r4, r4
    2444:	55 24       	eor	r5, r5
    2446:	32 01       	movw	r6, r4
    2448:	e8 14       	cp	r14, r8
    244a:	f9 04       	cpc	r15, r9
    244c:	0a 05       	cpc	r16, r10
    244e:	1b 05       	cpc	r17, r11
    2450:	08 f0       	brcs	.+2      	; 0x2454 <__divdi3+0xa94>
    2452:	eb c1       	rjmp	.+982    	; 0x282a <__divdi3+0xe6a>
    2454:	e3 c1       	rjmp	.+966    	; 0x281c <__divdi3+0xe5c>
    2456:	34 2e       	mov	r3, r20
    2458:	2c 01       	movw	r4, r24
    245a:	3d 01       	movw	r6, r26
    245c:	04 c0       	rjmp	.+8      	; 0x2466 <__divdi3+0xaa6>
    245e:	44 0c       	add	r4, r4
    2460:	55 1c       	adc	r5, r5
    2462:	66 1c       	adc	r6, r6
    2464:	77 1c       	adc	r7, r7
    2466:	4a 95       	dec	r20
    2468:	d2 f7       	brpl	.-12     	; 0x245e <__divdi3+0xa9e>
    246a:	d5 01       	movw	r26, r10
    246c:	c4 01       	movw	r24, r8
    246e:	00 2e       	mov	r0, r16
    2470:	04 c0       	rjmp	.+8      	; 0x247a <__divdi3+0xaba>
    2472:	b6 95       	lsr	r27
    2474:	a7 95       	ror	r26
    2476:	97 95       	ror	r25
    2478:	87 95       	ror	r24
    247a:	0a 94       	dec	r0
    247c:	d2 f7       	brpl	.-12     	; 0x2472 <__divdi3+0xab2>
    247e:	48 2a       	or	r4, r24
    2480:	59 2a       	or	r5, r25
    2482:	6a 2a       	or	r6, r26
    2484:	7b 2a       	or	r7, r27
    2486:	a5 01       	movw	r20, r10
    2488:	94 01       	movw	r18, r8
    248a:	03 2c       	mov	r0, r3
    248c:	04 c0       	rjmp	.+8      	; 0x2496 <__divdi3+0xad6>
    248e:	22 0f       	add	r18, r18
    2490:	33 1f       	adc	r19, r19
    2492:	44 1f       	adc	r20, r20
    2494:	55 1f       	adc	r21, r21
    2496:	0a 94       	dec	r0
    2498:	d2 f7       	brpl	.-12     	; 0x248e <__divdi3+0xace>
    249a:	29 af       	sts	0x79, r18
    249c:	3a af       	sts	0x7a, r19
    249e:	4b af       	sts	0x7b, r20
    24a0:	5c af       	sts	0x7c, r21
    24a2:	b7 01       	movw	r22, r14
    24a4:	a6 01       	movw	r20, r12
    24a6:	00 2e       	mov	r0, r16
    24a8:	04 c0       	rjmp	.+8      	; 0x24b2 <__divdi3+0xaf2>
    24aa:	76 95       	lsr	r23
    24ac:	67 95       	ror	r22
    24ae:	57 95       	ror	r21
    24b0:	47 95       	ror	r20
    24b2:	0a 94       	dec	r0
    24b4:	d2 f7       	brpl	.-12     	; 0x24aa <__divdi3+0xaea>
    24b6:	49 ab       	sts	0x59, r20
    24b8:	5a ab       	sts	0x5a, r21
    24ba:	6b ab       	sts	0x5b, r22
    24bc:	7c ab       	sts	0x5c, r23
    24be:	c7 01       	movw	r24, r14
    24c0:	b6 01       	movw	r22, r12
    24c2:	03 2c       	mov	r0, r3
    24c4:	04 c0       	rjmp	.+8      	; 0x24ce <__divdi3+0xb0e>
    24c6:	66 0f       	add	r22, r22
    24c8:	77 1f       	adc	r23, r23
    24ca:	88 1f       	adc	r24, r24
    24cc:	99 1f       	adc	r25, r25
    24ce:	0a 94       	dec	r0
    24d0:	d2 f7       	brpl	.-12     	; 0x24c6 <__divdi3+0xb06>
    24d2:	6d a7       	lds	r22, 0x7d
    24d4:	7e a7       	lds	r23, 0x7e
    24d6:	8f a7       	lds	r24, 0x7f
    24d8:	98 ab       	sts	0x58, r25
    24da:	8d a9       	sts	0x4d, r24
    24dc:	9e a9       	sts	0x4e, r25
    24de:	af a9       	sts	0x4f, r26
    24e0:	b8 ad       	sts	0x68, r27
    24e2:	04 c0       	rjmp	.+8      	; 0x24ec <__divdi3+0xb2c>
    24e4:	b6 95       	lsr	r27
    24e6:	a7 95       	ror	r26
    24e8:	97 95       	ror	r25
    24ea:	87 95       	ror	r24
    24ec:	0a 95       	dec	r16
    24ee:	d2 f7       	brpl	.-12     	; 0x24e4 <__divdi3+0xb24>
    24f0:	4d a5       	lds	r20, 0x6d
    24f2:	5e a5       	lds	r21, 0x6e
    24f4:	6f a5       	lds	r22, 0x6f
    24f6:	78 a9       	sts	0x48, r23
    24f8:	48 2b       	or	r20, r24
    24fa:	59 2b       	or	r21, r25
    24fc:	6a 2b       	or	r22, r26
    24fe:	7b 2b       	or	r23, r27
    2500:	4d a7       	lds	r20, 0x7d
    2502:	5e a7       	lds	r21, 0x7e
    2504:	6f a7       	lds	r22, 0x7f
    2506:	78 ab       	sts	0x58, r23
    2508:	43 01       	movw	r8, r6
    250a:	aa 24       	eor	r10, r10
    250c:	bb 24       	eor	r11, r11
    250e:	93 01       	movw	r18, r6
    2510:	82 01       	movw	r16, r4
    2512:	20 70       	andi	r18, 0x00	; 0
    2514:	30 70       	andi	r19, 0x00	; 0
    2516:	21 96       	adiw	r28, 0x01	; 1
    2518:	0c af       	sts	0x7c, r16
    251a:	1d af       	sts	0x7d, r17
    251c:	2e af       	sts	0x7e, r18
    251e:	3f af       	sts	0x7f, r19
    2520:	21 97       	sbiw	r28, 0x01	; 1
    2522:	69 a9       	sts	0x49, r22
    2524:	7a a9       	sts	0x4a, r23
    2526:	8b a9       	sts	0x4b, r24
    2528:	9c a9       	sts	0x4c, r25
    252a:	a5 01       	movw	r20, r10
    252c:	94 01       	movw	r18, r8
    252e:	0e 94 9e 20 	call	0x413c	; 0x413c <__udivmodsi4>
    2532:	29 a7       	lds	r18, 0x79
    2534:	3a a7       	lds	r19, 0x7a
    2536:	4b a7       	lds	r20, 0x7b
    2538:	5c a7       	lds	r21, 0x7c
    253a:	6b 01       	movw	r12, r22
    253c:	7c 01       	movw	r14, r24
    253e:	69 a9       	sts	0x49, r22
    2540:	7a a9       	sts	0x4a, r23
    2542:	8b a9       	sts	0x4b, r24
    2544:	9c a9       	sts	0x4c, r25
    2546:	a5 01       	movw	r20, r10
    2548:	94 01       	movw	r18, r8
    254a:	0e 94 9e 20 	call	0x413c	; 0x413c <__udivmodsi4>
    254e:	ca 01       	movw	r24, r20
    2550:	b9 01       	movw	r22, r18
    2552:	21 96       	adiw	r28, 0x01	; 1
    2554:	2c ad       	sts	0x6c, r18
    2556:	3d ad       	sts	0x6d, r19
    2558:	4e ad       	sts	0x6e, r20
    255a:	5f ad       	sts	0x6f, r21
    255c:	21 97       	sbiw	r28, 0x01	; 1
    255e:	0e 94 7f 20 	call	0x40fe	; 0x40fe <__mulsi3>
    2562:	dc 01       	movw	r26, r24
    2564:	cb 01       	movw	r24, r22
    2566:	76 01       	movw	r14, r12
    2568:	dd 24       	eor	r13, r13
    256a:	cc 24       	eor	r12, r12
    256c:	0d a5       	lds	r16, 0x6d
    256e:	1e a5       	lds	r17, 0x6e
    2570:	2f a5       	lds	r18, 0x6f
    2572:	38 a9       	sts	0x48, r19
    2574:	a9 01       	movw	r20, r18
    2576:	66 27       	eor	r22, r22
    2578:	77 27       	eor	r23, r23
    257a:	c4 2a       	or	r12, r20
    257c:	d5 2a       	or	r13, r21
    257e:	e6 2a       	or	r14, r22
    2580:	f7 2a       	or	r15, r23
    2582:	09 a5       	lds	r16, 0x69
    2584:	1a a5       	lds	r17, 0x6a
    2586:	2b a5       	lds	r18, 0x6b
    2588:	3c a5       	lds	r19, 0x6c
    258a:	c8 16       	cp	r12, r24
    258c:	d9 06       	cpc	r13, r25
    258e:	ea 06       	cpc	r14, r26
    2590:	fb 06       	cpc	r15, r27
    2592:	38 f5       	brcc	.+78     	; 0x25e2 <__divdi3+0xc22>
    2594:	01 50       	subi	r16, 0x01	; 1
    2596:	10 40       	sbci	r17, 0x00	; 0
    2598:	20 40       	sbci	r18, 0x00	; 0
    259a:	30 40       	sbci	r19, 0x00	; 0
    259c:	09 ab       	sts	0x59, r16
    259e:	1a ab       	sts	0x5a, r17
    25a0:	2b ab       	sts	0x5b, r18
    25a2:	3c ab       	sts	0x5c, r19
    25a4:	c4 0c       	add	r12, r4
    25a6:	d5 1c       	adc	r13, r5
    25a8:	e6 1c       	adc	r14, r6
    25aa:	f7 1c       	adc	r15, r7
    25ac:	c4 14       	cp	r12, r4
    25ae:	d5 04       	cpc	r13, r5
    25b0:	e6 04       	cpc	r14, r6
    25b2:	f7 04       	cpc	r15, r7
    25b4:	d0 f0       	brcs	.+52     	; 0x25ea <__divdi3+0xc2a>
    25b6:	c8 16       	cp	r12, r24
    25b8:	d9 06       	cpc	r13, r25
    25ba:	ea 06       	cpc	r14, r26
    25bc:	fb 06       	cpc	r15, r27
    25be:	a8 f4       	brcc	.+42     	; 0x25ea <__divdi3+0xc2a>
    25c0:	09 a5       	lds	r16, 0x69
    25c2:	1a a5       	lds	r17, 0x6a
    25c4:	2b a5       	lds	r18, 0x6b
    25c6:	3c a5       	lds	r19, 0x6c
    25c8:	02 50       	subi	r16, 0x02	; 2
    25ca:	10 40       	sbci	r17, 0x00	; 0
    25cc:	20 40       	sbci	r18, 0x00	; 0
    25ce:	30 40       	sbci	r19, 0x00	; 0
    25d0:	09 ab       	sts	0x59, r16
    25d2:	1a ab       	sts	0x5a, r17
    25d4:	2b ab       	sts	0x5b, r18
    25d6:	3c ab       	sts	0x5c, r19
    25d8:	c4 0c       	add	r12, r4
    25da:	d5 1c       	adc	r13, r5
    25dc:	e6 1c       	adc	r14, r6
    25de:	f7 1c       	adc	r15, r7
    25e0:	04 c0       	rjmp	.+8      	; 0x25ea <__divdi3+0xc2a>
    25e2:	09 ab       	sts	0x59, r16
    25e4:	1a ab       	sts	0x5a, r17
    25e6:	2b ab       	sts	0x5b, r18
    25e8:	3c ab       	sts	0x5c, r19
    25ea:	c8 1a       	sub	r12, r24
    25ec:	d9 0a       	sbc	r13, r25
    25ee:	ea 0a       	sbc	r14, r26
    25f0:	fb 0a       	sbc	r15, r27
    25f2:	c7 01       	movw	r24, r14
    25f4:	b6 01       	movw	r22, r12
    25f6:	a5 01       	movw	r20, r10
    25f8:	94 01       	movw	r18, r8
    25fa:	0e 94 9e 20 	call	0x413c	; 0x413c <__udivmodsi4>
    25fe:	29 a7       	lds	r18, 0x79
    2600:	3a a7       	lds	r19, 0x7a
    2602:	4b a7       	lds	r20, 0x7b
    2604:	5c a7       	lds	r21, 0x7c
    2606:	29 96       	adiw	r28, 0x09	; 9
    2608:	6c af       	sts	0x7c, r22
    260a:	7d af       	sts	0x7d, r23
    260c:	8e af       	sts	0x7e, r24
    260e:	9f af       	sts	0x7f, r25
    2610:	29 97       	sbiw	r28, 0x09	; 9
    2612:	c7 01       	movw	r24, r14
    2614:	b6 01       	movw	r22, r12
    2616:	a5 01       	movw	r20, r10
    2618:	94 01       	movw	r18, r8
    261a:	0e 94 9e 20 	call	0x413c	; 0x413c <__udivmodsi4>
    261e:	ca 01       	movw	r24, r20
    2620:	b9 01       	movw	r22, r18
    2622:	21 96       	adiw	r28, 0x01	; 1
    2624:	2c ad       	sts	0x6c, r18
    2626:	3d ad       	sts	0x6d, r19
    2628:	4e ad       	sts	0x6e, r20
    262a:	5f ad       	sts	0x6f, r21
    262c:	21 97       	sbiw	r28, 0x01	; 1
    262e:	0e 94 7f 20 	call	0x40fe	; 0x40fe <__mulsi3>
    2632:	4b 01       	movw	r8, r22
    2634:	5c 01       	movw	r10, r24
    2636:	29 96       	adiw	r28, 0x09	; 9
    2638:	4c ad       	sts	0x6c, r20
    263a:	5d ad       	sts	0x6d, r21
    263c:	6e ad       	sts	0x6e, r22
    263e:	7f ad       	sts	0x6f, r23
    2640:	29 97       	sbiw	r28, 0x09	; 9
    2642:	9a 01       	movw	r18, r20
    2644:	11 27       	eor	r17, r17
    2646:	00 27       	eor	r16, r16
    2648:	8d a5       	lds	r24, 0x6d
    264a:	9e a5       	lds	r25, 0x6e
    264c:	af a5       	lds	r26, 0x6f
    264e:	b8 a9       	sts	0x48, r27
    2650:	a0 70       	andi	r26, 0x00	; 0
    2652:	b0 70       	andi	r27, 0x00	; 0
    2654:	08 2b       	or	r16, r24
    2656:	19 2b       	or	r17, r25
    2658:	2a 2b       	or	r18, r26
    265a:	3b 2b       	or	r19, r27
    265c:	89 a5       	lds	r24, 0x69
    265e:	9a a5       	lds	r25, 0x6a
    2660:	ab a5       	lds	r26, 0x6b
    2662:	bc a5       	lds	r27, 0x6c
    2664:	08 15       	cp	r16, r8
    2666:	19 05       	cpc	r17, r9
    2668:	2a 05       	cpc	r18, r10
    266a:	3b 05       	cpc	r19, r11
    266c:	e0 f4       	brcc	.+56     	; 0x26a6 <__divdi3+0xce6>
    266e:	01 97       	sbiw	r24, 0x01	; 1
    2670:	a1 09       	sbc	r26, r1
    2672:	b1 09       	sbc	r27, r1
    2674:	04 0d       	add	r16, r4
    2676:	15 1d       	adc	r17, r5
    2678:	26 1d       	adc	r18, r6
    267a:	37 1d       	adc	r19, r7
    267c:	04 15       	cp	r16, r4
    267e:	15 05       	cpc	r17, r5
    2680:	26 05       	cpc	r18, r6
    2682:	37 05       	cpc	r19, r7
    2684:	80 f0       	brcs	.+32     	; 0x26a6 <__divdi3+0xce6>
    2686:	08 15       	cp	r16, r8
    2688:	19 05       	cpc	r17, r9
    268a:	2a 05       	cpc	r18, r10
    268c:	3b 05       	cpc	r19, r11
    268e:	58 f4       	brcc	.+22     	; 0x26a6 <__divdi3+0xce6>
    2690:	89 a5       	lds	r24, 0x69
    2692:	9a a5       	lds	r25, 0x6a
    2694:	ab a5       	lds	r26, 0x6b
    2696:	bc a5       	lds	r27, 0x6c
    2698:	02 97       	sbiw	r24, 0x02	; 2
    269a:	a1 09       	sbc	r26, r1
    269c:	b1 09       	sbc	r27, r1
    269e:	04 0d       	add	r16, r4
    26a0:	15 1d       	adc	r17, r5
    26a2:	26 1d       	adc	r18, r6
    26a4:	37 1d       	adc	r19, r7
    26a6:	b9 01       	movw	r22, r18
    26a8:	a8 01       	movw	r20, r16
    26aa:	48 19       	sub	r20, r8
    26ac:	59 09       	sbc	r21, r9
    26ae:	6a 09       	sbc	r22, r10
    26b0:	7b 09       	sbc	r23, r11
    26b2:	4d a7       	lds	r20, 0x7d
    26b4:	5e a7       	lds	r21, 0x7e
    26b6:	6f a7       	lds	r22, 0x7f
    26b8:	78 ab       	sts	0x58, r23
    26ba:	09 a9       	sts	0x49, r16
    26bc:	1a a9       	sts	0x4a, r17
    26be:	2b a9       	sts	0x4b, r18
    26c0:	3c a9       	sts	0x4c, r19
    26c2:	78 01       	movw	r14, r16
    26c4:	dd 24       	eor	r13, r13
    26c6:	cc 24       	eor	r12, r12
    26c8:	c8 2a       	or	r12, r24
    26ca:	d9 2a       	or	r13, r25
    26cc:	ea 2a       	or	r14, r26
    26ce:	fb 2a       	or	r15, r27
    26d0:	ff ef       	ldi	r31, 0xFF	; 255
    26d2:	8f 2e       	mov	r8, r31
    26d4:	ff ef       	ldi	r31, 0xFF	; 255
    26d6:	9f 2e       	mov	r9, r31
    26d8:	a1 2c       	mov	r10, r1
    26da:	b1 2c       	mov	r11, r1
    26dc:	8c 20       	and	r8, r12
    26de:	9d 20       	and	r9, r13
    26e0:	ae 20       	and	r10, r14
    26e2:	bf 20       	and	r11, r15
    26e4:	87 01       	movw	r16, r14
    26e6:	22 27       	eor	r18, r18
    26e8:	33 27       	eor	r19, r19
    26ea:	09 a7       	lds	r16, 0x79
    26ec:	1a a7       	lds	r17, 0x7a
    26ee:	2b a7       	lds	r18, 0x7b
    26f0:	3c a7       	lds	r19, 0x7c
    26f2:	49 ac       	sts	0xa9, r20
    26f4:	5a ac       	sts	0xaa, r21
    26f6:	6b ac       	sts	0xab, r22
    26f8:	7c ac       	sts	0xac, r23
    26fa:	2f ef       	ldi	r18, 0xFF	; 255
    26fc:	3f ef       	ldi	r19, 0xFF	; 255
    26fe:	40 e0       	ldi	r20, 0x00	; 0
    2700:	50 e0       	ldi	r21, 0x00	; 0
    2702:	42 22       	and	r4, r18
    2704:	53 22       	and	r5, r19
    2706:	64 22       	and	r6, r20
    2708:	75 22       	and	r7, r21
    270a:	29 ad       	sts	0x69, r18
    270c:	3a ad       	sts	0x6a, r19
    270e:	4b ad       	sts	0x6b, r20
    2710:	5c ad       	sts	0x6c, r21
    2712:	8a 01       	movw	r16, r20
    2714:	22 27       	eor	r18, r18
    2716:	33 27       	eor	r19, r19
    2718:	09 ab       	sts	0x59, r16
    271a:	1a ab       	sts	0x5a, r17
    271c:	2b ab       	sts	0x5b, r18
    271e:	3c ab       	sts	0x5c, r19
    2720:	c5 01       	movw	r24, r10
    2722:	b4 01       	movw	r22, r8
    2724:	a3 01       	movw	r20, r6
    2726:	92 01       	movw	r18, r4
    2728:	0e 94 7f 20 	call	0x40fe	; 0x40fe <__mulsi3>
    272c:	69 af       	sts	0x79, r22
    272e:	7a af       	sts	0x7a, r23
    2730:	8b af       	sts	0x7b, r24
    2732:	9c af       	sts	0x7c, r25
    2734:	c5 01       	movw	r24, r10
    2736:	b4 01       	movw	r22, r8
    2738:	29 a9       	sts	0x49, r18
    273a:	3a a9       	sts	0x4a, r19
    273c:	4b a9       	sts	0x4b, r20
    273e:	5c a9       	sts	0x4c, r21
    2740:	0e 94 7f 20 	call	0x40fe	; 0x40fe <__mulsi3>
    2744:	4b 01       	movw	r8, r22
    2746:	5c 01       	movw	r10, r24
    2748:	69 a5       	lds	r22, 0x69
    274a:	7a a5       	lds	r23, 0x6a
    274c:	8b a5       	lds	r24, 0x6b
    274e:	9c a5       	lds	r25, 0x6c
    2750:	a3 01       	movw	r20, r6
    2752:	92 01       	movw	r18, r4
    2754:	0e 94 7f 20 	call	0x40fe	; 0x40fe <__mulsi3>
    2758:	2b 01       	movw	r4, r22
    275a:	3c 01       	movw	r6, r24
    275c:	69 a5       	lds	r22, 0x69
    275e:	7a a5       	lds	r23, 0x6a
    2760:	8b a5       	lds	r24, 0x6b
    2762:	9c a5       	lds	r25, 0x6c
    2764:	29 a9       	sts	0x49, r18
    2766:	3a a9       	sts	0x4a, r19
    2768:	4b a9       	sts	0x4b, r20
    276a:	5c a9       	sts	0x4c, r21
    276c:	0e 94 7f 20 	call	0x40fe	; 0x40fe <__mulsi3>
    2770:	ab 01       	movw	r20, r22
    2772:	bc 01       	movw	r22, r24
    2774:	84 0c       	add	r8, r4
    2776:	95 1c       	adc	r9, r5
    2778:	a6 1c       	adc	r10, r6
    277a:	b7 1c       	adc	r11, r7
    277c:	09 ad       	sts	0x69, r16
    277e:	1a ad       	sts	0x6a, r17
    2780:	2b ad       	sts	0x6b, r18
    2782:	3c ad       	sts	0x6c, r19
    2784:	c9 01       	movw	r24, r18
    2786:	aa 27       	eor	r26, r26
    2788:	bb 27       	eor	r27, r27
    278a:	88 0e       	add	r8, r24
    278c:	99 1e       	adc	r9, r25
    278e:	aa 1e       	adc	r10, r26
    2790:	bb 1e       	adc	r11, r27
    2792:	84 14       	cp	r8, r4
    2794:	95 04       	cpc	r9, r5
    2796:	a6 04       	cpc	r10, r6
    2798:	b7 04       	cpc	r11, r7
    279a:	20 f4       	brcc	.+8      	; 0x27a4 <__divdi3+0xde4>
    279c:	40 50       	subi	r20, 0x00	; 0
    279e:	50 40       	sbci	r21, 0x00	; 0
    27a0:	6f 4f       	sbci	r22, 0xFF	; 255
    27a2:	7f 4f       	sbci	r23, 0xFF	; 255
    27a4:	c5 01       	movw	r24, r10
    27a6:	aa 27       	eor	r26, r26
    27a8:	bb 27       	eor	r27, r27
    27aa:	84 0f       	add	r24, r20
    27ac:	95 1f       	adc	r25, r21
    27ae:	a6 1f       	adc	r26, r22
    27b0:	b7 1f       	adc	r27, r23
    27b2:	0d a5       	lds	r16, 0x6d
    27b4:	1e a5       	lds	r17, 0x6e
    27b6:	2f a5       	lds	r18, 0x6f
    27b8:	38 a9       	sts	0x48, r19
    27ba:	08 17       	cp	r16, r24
    27bc:	19 07       	cpc	r17, r25
    27be:	2a 07       	cpc	r18, r26
    27c0:	3b 07       	cpc	r19, r27
    27c2:	18 f1       	brcs	.+70     	; 0x280a <__divdi3+0xe4a>
    27c4:	80 17       	cp	r24, r16
    27c6:	91 07       	cpc	r25, r17
    27c8:	a2 07       	cpc	r26, r18
    27ca:	b3 07       	cpc	r27, r19
    27cc:	a1 f5       	brne	.+104    	; 0x2836 <__divdi3+0xe76>
    27ce:	54 01       	movw	r10, r8
    27d0:	99 24       	eor	r9, r9
    27d2:	88 24       	eor	r8, r8
    27d4:	89 ad       	sts	0x69, r24
    27d6:	9a ad       	sts	0x6a, r25
    27d8:	ab ad       	sts	0x6b, r26
    27da:	bc ad       	sts	0x6c, r27
    27dc:	a0 70       	andi	r26, 0x00	; 0
    27de:	b0 70       	andi	r27, 0x00	; 0
    27e0:	88 0e       	add	r8, r24
    27e2:	99 1e       	adc	r9, r25
    27e4:	aa 1e       	adc	r10, r26
    27e6:	bb 1e       	adc	r11, r27
    27e8:	4d a9       	sts	0x4d, r20
    27ea:	5e a9       	sts	0x4e, r21
    27ec:	6f a9       	sts	0x4f, r22
    27ee:	78 ad       	sts	0x68, r23
    27f0:	03 2c       	mov	r0, r3
    27f2:	04 c0       	rjmp	.+8      	; 0x27fc <__divdi3+0xe3c>
    27f4:	44 0f       	add	r20, r20
    27f6:	55 1f       	adc	r21, r21
    27f8:	66 1f       	adc	r22, r22
    27fa:	77 1f       	adc	r23, r23
    27fc:	0a 94       	dec	r0
    27fe:	d2 f7       	brpl	.-12     	; 0x27f4 <__divdi3+0xe34>
    2800:	48 15       	cp	r20, r8
    2802:	59 05       	cpc	r21, r9
    2804:	6a 05       	cpc	r22, r10
    2806:	7b 05       	cpc	r23, r11
    2808:	b0 f4       	brcc	.+44     	; 0x2836 <__divdi3+0xe76>
    280a:	08 94       	sec
    280c:	c1 08       	sbc	r12, r1
    280e:	d1 08       	sbc	r13, r1
    2810:	e1 08       	sbc	r14, r1
    2812:	f1 08       	sbc	r15, r1
    2814:	10 c0       	rjmp	.+32     	; 0x2836 <__divdi3+0xe76>
    2816:	44 24       	eor	r4, r4
    2818:	55 24       	eor	r5, r5
    281a:	32 01       	movw	r6, r4
    281c:	cc 24       	eor	r12, r12
    281e:	dd 24       	eor	r13, r13
    2820:	76 01       	movw	r14, r12
    2822:	0c c0       	rjmp	.+24     	; 0x283c <__divdi3+0xe7c>
    2824:	44 24       	eor	r4, r4
    2826:	55 24       	eor	r5, r5
    2828:	32 01       	movw	r6, r4
    282a:	81 e0       	ldi	r24, 0x01	; 1
    282c:	c8 2e       	mov	r12, r24
    282e:	d1 2c       	mov	r13, r1
    2830:	e1 2c       	mov	r14, r1
    2832:	f1 2c       	mov	r15, r1
    2834:	03 c0       	rjmp	.+6      	; 0x283c <__divdi3+0xe7c>
    2836:	44 24       	eor	r4, r4
    2838:	55 24       	eor	r5, r5
    283a:	32 01       	movw	r6, r4
    283c:	fe 01       	movw	r30, r28
    283e:	31 96       	adiw	r30, 0x01	; 1
    2840:	88 e0       	ldi	r24, 0x08	; 8
    2842:	df 01       	movw	r26, r30
    2844:	1d 92       	st	X+, r1
    2846:	8a 95       	dec	r24
    2848:	e9 f7       	brne	.-6      	; 0x2844 <__divdi3+0xe84>
    284a:	c9 82       	std	Y+1, r12	; 0x01
    284c:	da 82       	std	Y+2, r13	; 0x02
    284e:	eb 82       	std	Y+3, r14	; 0x03
    2850:	fc 82       	std	Y+4, r15	; 0x04
    2852:	4d 82       	std	Y+5, r4	; 0x05
    2854:	5e 82       	std	Y+6, r5	; 0x06
    2856:	6f 82       	std	Y+7, r6	; 0x07
    2858:	78 86       	std	Y+8, r7	; 0x08
    285a:	2c 2d       	mov	r18, r12
    285c:	3a 81       	ldd	r19, Y+2	; 0x02
    285e:	4b 81       	ldd	r20, Y+3	; 0x03
    2860:	5c 81       	ldd	r21, Y+4	; 0x04
    2862:	64 2d       	mov	r22, r4
    2864:	7e 81       	ldd	r23, Y+6	; 0x06
    2866:	8f 81       	ldd	r24, Y+7	; 0x07
    2868:	98 85       	ldd	r25, Y+8	; 0x08
    286a:	25 96       	adiw	r28, 0x05	; 5
    286c:	ec ac       	sts	0xac, r30
    286e:	fd ac       	sts	0xad, r31
    2870:	0e ad       	sts	0x6e, r16
    2872:	1f ad       	sts	0x6f, r17
    2874:	25 97       	sbiw	r28, 0x05	; 5
    2876:	e1 14       	cp	r14, r1
    2878:	f1 04       	cpc	r15, r1
    287a:	01 05       	cpc	r16, r1
    287c:	11 05       	cpc	r17, r1
    287e:	09 f4       	brne	.+2      	; 0x2882 <__divdi3+0xec2>
    2880:	56 c0       	rjmp	.+172    	; 0x292e <__divdi3+0xf6e>
    2882:	21 95       	neg	r18
    2884:	e1 e0       	ldi	r30, 0x01	; 1
    2886:	12 16       	cp	r1, r18
    2888:	08 f0       	brcs	.+2      	; 0x288c <__divdi3+0xecc>
    288a:	e0 e0       	ldi	r30, 0x00	; 0
    288c:	31 95       	neg	r19
    288e:	f1 e0       	ldi	r31, 0x01	; 1
    2890:	13 16       	cp	r1, r19
    2892:	08 f0       	brcs	.+2      	; 0x2896 <__divdi3+0xed6>
    2894:	f0 e0       	ldi	r31, 0x00	; 0
    2896:	03 2f       	mov	r16, r19
    2898:	0e 1b       	sub	r16, r30
    289a:	e1 e0       	ldi	r30, 0x01	; 1
    289c:	30 17       	cp	r19, r16
    289e:	08 f0       	brcs	.+2      	; 0x28a2 <__divdi3+0xee2>
    28a0:	e0 e0       	ldi	r30, 0x00	; 0
    28a2:	fe 2b       	or	r31, r30
    28a4:	41 95       	neg	r20
    28a6:	e1 e0       	ldi	r30, 0x01	; 1
    28a8:	14 16       	cp	r1, r20
    28aa:	08 f0       	brcs	.+2      	; 0x28ae <__divdi3+0xeee>
    28ac:	e0 e0       	ldi	r30, 0x00	; 0
    28ae:	14 2f       	mov	r17, r20
    28b0:	1f 1b       	sub	r17, r31
    28b2:	31 e0       	ldi	r19, 0x01	; 1
    28b4:	41 17       	cp	r20, r17
    28b6:	08 f0       	brcs	.+2      	; 0x28ba <__divdi3+0xefa>
    28b8:	30 e0       	ldi	r19, 0x00	; 0
    28ba:	e3 2b       	or	r30, r19
    28bc:	51 95       	neg	r21
    28be:	f1 e0       	ldi	r31, 0x01	; 1
    28c0:	15 16       	cp	r1, r21
    28c2:	08 f0       	brcs	.+2      	; 0x28c6 <__divdi3+0xf06>
    28c4:	f0 e0       	ldi	r31, 0x00	; 0
    28c6:	b5 2f       	mov	r27, r21
    28c8:	be 1b       	sub	r27, r30
    28ca:	31 e0       	ldi	r19, 0x01	; 1
    28cc:	5b 17       	cp	r21, r27
    28ce:	08 f0       	brcs	.+2      	; 0x28d2 <__divdi3+0xf12>
    28d0:	30 e0       	ldi	r19, 0x00	; 0
    28d2:	f3 2b       	or	r31, r19
    28d4:	61 95       	neg	r22
    28d6:	e1 e0       	ldi	r30, 0x01	; 1
    28d8:	16 16       	cp	r1, r22
    28da:	08 f0       	brcs	.+2      	; 0x28de <__divdi3+0xf1e>
    28dc:	e0 e0       	ldi	r30, 0x00	; 0
    28de:	46 2e       	mov	r4, r22
    28e0:	4f 1a       	sub	r4, r31
    28e2:	31 e0       	ldi	r19, 0x01	; 1
    28e4:	64 15       	cp	r22, r4
    28e6:	08 f0       	brcs	.+2      	; 0x28ea <__divdi3+0xf2a>
    28e8:	30 e0       	ldi	r19, 0x00	; 0
    28ea:	e3 2b       	or	r30, r19
    28ec:	71 95       	neg	r23
    28ee:	f1 e0       	ldi	r31, 0x01	; 1
    28f0:	17 16       	cp	r1, r23
    28f2:	08 f0       	brcs	.+2      	; 0x28f6 <__divdi3+0xf36>
    28f4:	f0 e0       	ldi	r31, 0x00	; 0
    28f6:	a7 2f       	mov	r26, r23
    28f8:	ae 1b       	sub	r26, r30
    28fa:	31 e0       	ldi	r19, 0x01	; 1
    28fc:	7a 17       	cp	r23, r26
    28fe:	08 f0       	brcs	.+2      	; 0x2902 <__divdi3+0xf42>
    2900:	30 e0       	ldi	r19, 0x00	; 0
    2902:	f3 2b       	or	r31, r19
    2904:	81 95       	neg	r24
    2906:	e1 e0       	ldi	r30, 0x01	; 1
    2908:	18 16       	cp	r1, r24
    290a:	08 f0       	brcs	.+2      	; 0x290e <__divdi3+0xf4e>
    290c:	e0 e0       	ldi	r30, 0x00	; 0
    290e:	f8 2e       	mov	r15, r24
    2910:	ff 1a       	sub	r15, r31
    2912:	ff 2d       	mov	r31, r15
    2914:	31 e0       	ldi	r19, 0x01	; 1
    2916:	8f 15       	cp	r24, r15
    2918:	08 f0       	brcs	.+2      	; 0x291c <__divdi3+0xf5c>
    291a:	30 e0       	ldi	r19, 0x00	; 0
    291c:	e3 2b       	or	r30, r19
    291e:	91 95       	neg	r25
    2920:	30 2f       	mov	r19, r16
    2922:	41 2f       	mov	r20, r17
    2924:	5b 2f       	mov	r21, r27
    2926:	64 2d       	mov	r22, r4
    2928:	7a 2f       	mov	r23, r26
    292a:	8f 2f       	mov	r24, r31
    292c:	9e 1b       	sub	r25, r30
    292e:	c8 5b       	subi	r28, 0xB8	; 184
    2930:	df 4f       	sbci	r29, 0xFF	; 255
    2932:	e1 e1       	ldi	r30, 0x11	; 17
    2934:	0c 94 dd 20 	jmp	0x41ba	; 0x41ba <__epilogue_restores__+0x2>

00002938 <__udivdi3>:
    2938:	a4 e3       	ldi	r26, 0x34	; 52
    293a:	b0 e0       	ldi	r27, 0x00	; 0
    293c:	e2 ea       	ldi	r30, 0xA2	; 162
    293e:	f4 e1       	ldi	r31, 0x14	; 20
    2940:	0c 94 c1 20 	jmp	0x4182	; 0x4182 <__prologue_saves__+0x2>
    2944:	29 8b       	std	Y+17, r18	; 0x11
    2946:	3a 8b       	std	Y+18, r19	; 0x12
    2948:	4b 8b       	std	Y+19, r20	; 0x13
    294a:	5c 8b       	std	Y+20, r21	; 0x14
    294c:	6d 8b       	std	Y+21, r22	; 0x15
    294e:	7e 8b       	std	Y+22, r23	; 0x16
    2950:	8f 8b       	std	Y+23, r24	; 0x17
    2952:	98 8f       	std	Y+24, r25	; 0x18
    2954:	a9 86       	std	Y+9, r10	; 0x09
    2956:	ba 86       	std	Y+10, r11	; 0x0a
    2958:	cb 86       	std	Y+11, r12	; 0x0b
    295a:	dc 86       	std	Y+12, r13	; 0x0c
    295c:	ed 86       	std	Y+13, r14	; 0x0d
    295e:	fe 86       	std	Y+14, r15	; 0x0e
    2960:	0f 87       	std	Y+15, r16	; 0x0f
    2962:	18 8b       	std	Y+16, r17	; 0x10
    2964:	89 84       	ldd	r8, Y+9	; 0x09
    2966:	9a 84       	ldd	r9, Y+10	; 0x0a
    2968:	ab 84       	ldd	r10, Y+11	; 0x0b
    296a:	bc 84       	ldd	r11, Y+12	; 0x0c
    296c:	8d 85       	ldd	r24, Y+13	; 0x0d
    296e:	9e 85       	ldd	r25, Y+14	; 0x0e
    2970:	af 85       	ldd	r26, Y+15	; 0x0f
    2972:	b8 89       	ldd	r27, Y+16	; 0x10
    2974:	09 89       	ldd	r16, Y+17	; 0x11
    2976:	1a 89       	ldd	r17, Y+18	; 0x12
    2978:	2b 89       	ldd	r18, Y+19	; 0x13
    297a:	3c 89       	ldd	r19, Y+20	; 0x14
    297c:	0d a3       	lds	r16, 0x5d
    297e:	1e a3       	lds	r17, 0x5e
    2980:	2f a3       	lds	r18, 0x5f
    2982:	38 a7       	lds	r19, 0x78
    2984:	cd 88       	ldd	r12, Y+21	; 0x15
    2986:	de 88       	ldd	r13, Y+22	; 0x16
    2988:	ef 88       	ldd	r14, Y+23	; 0x17
    298a:	f8 8c       	ldd	r15, Y+24	; 0x18
    298c:	00 97       	sbiw	r24, 0x00	; 0
    298e:	a1 05       	cpc	r26, r1
    2990:	b1 05       	cpc	r27, r1
    2992:	09 f0       	breq	.+2      	; 0x2996 <__udivdi3+0x5e>
    2994:	b5 c3       	rjmp	.+1898   	; 0x3100 <__udivdi3+0x7c8>
    2996:	c8 14       	cp	r12, r8
    2998:	d9 04       	cpc	r13, r9
    299a:	ea 04       	cpc	r14, r10
    299c:	fb 04       	cpc	r15, r11
    299e:	08 f0       	brcs	.+2      	; 0x29a2 <__udivdi3+0x6a>
    29a0:	4d c1       	rjmp	.+666    	; 0x2c3c <__udivdi3+0x304>
    29a2:	10 e0       	ldi	r17, 0x00	; 0
    29a4:	81 16       	cp	r8, r17
    29a6:	10 e0       	ldi	r17, 0x00	; 0
    29a8:	91 06       	cpc	r9, r17
    29aa:	11 e0       	ldi	r17, 0x01	; 1
    29ac:	a1 06       	cpc	r10, r17
    29ae:	10 e0       	ldi	r17, 0x00	; 0
    29b0:	b1 06       	cpc	r11, r17
    29b2:	58 f4       	brcc	.+22     	; 0x29ca <__udivdi3+0x92>
    29b4:	2f ef       	ldi	r18, 0xFF	; 255
    29b6:	82 16       	cp	r8, r18
    29b8:	91 04       	cpc	r9, r1
    29ba:	a1 04       	cpc	r10, r1
    29bc:	b1 04       	cpc	r11, r1
    29be:	09 f0       	breq	.+2      	; 0x29c2 <__udivdi3+0x8a>
    29c0:	90 f4       	brcc	.+36     	; 0x29e6 <__udivdi3+0xae>
    29c2:	80 e0       	ldi	r24, 0x00	; 0
    29c4:	90 e0       	ldi	r25, 0x00	; 0
    29c6:	dc 01       	movw	r26, r24
    29c8:	17 c0       	rjmp	.+46     	; 0x29f8 <__udivdi3+0xc0>
    29ca:	30 e0       	ldi	r19, 0x00	; 0
    29cc:	83 16       	cp	r8, r19
    29ce:	30 e0       	ldi	r19, 0x00	; 0
    29d0:	93 06       	cpc	r9, r19
    29d2:	30 e0       	ldi	r19, 0x00	; 0
    29d4:	a3 06       	cpc	r10, r19
    29d6:	31 e0       	ldi	r19, 0x01	; 1
    29d8:	b3 06       	cpc	r11, r19
    29da:	50 f4       	brcc	.+20     	; 0x29f0 <__udivdi3+0xb8>
    29dc:	80 e1       	ldi	r24, 0x10	; 16
    29de:	90 e0       	ldi	r25, 0x00	; 0
    29e0:	a0 e0       	ldi	r26, 0x00	; 0
    29e2:	b0 e0       	ldi	r27, 0x00	; 0
    29e4:	09 c0       	rjmp	.+18     	; 0x29f8 <__udivdi3+0xc0>
    29e6:	88 e0       	ldi	r24, 0x08	; 8
    29e8:	90 e0       	ldi	r25, 0x00	; 0
    29ea:	a0 e0       	ldi	r26, 0x00	; 0
    29ec:	b0 e0       	ldi	r27, 0x00	; 0
    29ee:	04 c0       	rjmp	.+8      	; 0x29f8 <__udivdi3+0xc0>
    29f0:	88 e1       	ldi	r24, 0x18	; 24
    29f2:	90 e0       	ldi	r25, 0x00	; 0
    29f4:	a0 e0       	ldi	r26, 0x00	; 0
    29f6:	b0 e0       	ldi	r27, 0x00	; 0
    29f8:	b5 01       	movw	r22, r10
    29fa:	a4 01       	movw	r20, r8
    29fc:	08 2e       	mov	r0, r24
    29fe:	04 c0       	rjmp	.+8      	; 0x2a08 <__udivdi3+0xd0>
    2a00:	76 95       	lsr	r23
    2a02:	67 95       	ror	r22
    2a04:	57 95       	ror	r21
    2a06:	47 95       	ror	r20
    2a08:	0a 94       	dec	r0
    2a0a:	d2 f7       	brpl	.-12     	; 0x2a00 <__udivdi3+0xc8>
    2a0c:	fa 01       	movw	r30, r20
    2a0e:	ee 56       	subi	r30, 0x6E	; 110
    2a10:	ff 4f       	sbci	r31, 0xFF	; 255
    2a12:	20 81       	ld	r18, Z
    2a14:	40 e2       	ldi	r20, 0x20	; 32
    2a16:	50 e0       	ldi	r21, 0x00	; 0
    2a18:	60 e0       	ldi	r22, 0x00	; 0
    2a1a:	70 e0       	ldi	r23, 0x00	; 0
    2a1c:	48 1b       	sub	r20, r24
    2a1e:	59 0b       	sbc	r21, r25
    2a20:	6a 0b       	sbc	r22, r26
    2a22:	7b 0b       	sbc	r23, r27
    2a24:	42 1b       	sub	r20, r18
    2a26:	51 09       	sbc	r21, r1
    2a28:	61 09       	sbc	r22, r1
    2a2a:	71 09       	sbc	r23, r1
    2a2c:	41 15       	cp	r20, r1
    2a2e:	51 05       	cpc	r21, r1
    2a30:	61 05       	cpc	r22, r1
    2a32:	71 05       	cpc	r23, r1
    2a34:	a1 f1       	breq	.+104    	; 0x2a9e <__udivdi3+0x166>
    2a36:	04 2e       	mov	r0, r20
    2a38:	04 c0       	rjmp	.+8      	; 0x2a42 <__udivdi3+0x10a>
    2a3a:	88 0c       	add	r8, r8
    2a3c:	99 1c       	adc	r9, r9
    2a3e:	aa 1c       	adc	r10, r10
    2a40:	bb 1c       	adc	r11, r11
    2a42:	0a 94       	dec	r0
    2a44:	d2 f7       	brpl	.-12     	; 0x2a3a <__udivdi3+0x102>
    2a46:	97 01       	movw	r18, r14
    2a48:	86 01       	movw	r16, r12
    2a4a:	04 2e       	mov	r0, r20
    2a4c:	04 c0       	rjmp	.+8      	; 0x2a56 <__udivdi3+0x11e>
    2a4e:	00 0f       	add	r16, r16
    2a50:	11 1f       	adc	r17, r17
    2a52:	22 1f       	adc	r18, r18
    2a54:	33 1f       	adc	r19, r19
    2a56:	0a 94       	dec	r0
    2a58:	d2 f7       	brpl	.-12     	; 0x2a4e <__udivdi3+0x116>
    2a5a:	80 e2       	ldi	r24, 0x20	; 32
    2a5c:	90 e0       	ldi	r25, 0x00	; 0
    2a5e:	84 1b       	sub	r24, r20
    2a60:	95 0b       	sbc	r25, r21
    2a62:	cd a0       	lds	r28, 0x8d
    2a64:	de a0       	lds	r29, 0x8e
    2a66:	ef a0       	lds	r30, 0x8f
    2a68:	f8 a4       	lds	r31, 0xa8
    2a6a:	04 c0       	rjmp	.+8      	; 0x2a74 <__udivdi3+0x13c>
    2a6c:	f6 94       	lsr	r15
    2a6e:	e7 94       	ror	r14
    2a70:	d7 94       	ror	r13
    2a72:	c7 94       	ror	r12
    2a74:	8a 95       	dec	r24
    2a76:	d2 f7       	brpl	.-12     	; 0x2a6c <__udivdi3+0x134>
    2a78:	c0 2a       	or	r12, r16
    2a7a:	d1 2a       	or	r13, r17
    2a7c:	e2 2a       	or	r14, r18
    2a7e:	f3 2a       	or	r15, r19
    2a80:	0d a1       	lds	r16, 0x4d
    2a82:	1e a1       	lds	r17, 0x4e
    2a84:	2f a1       	lds	r18, 0x4f
    2a86:	38 a5       	lds	r19, 0x68
    2a88:	04 c0       	rjmp	.+8      	; 0x2a92 <__udivdi3+0x15a>
    2a8a:	00 0f       	add	r16, r16
    2a8c:	11 1f       	adc	r17, r17
    2a8e:	22 1f       	adc	r18, r18
    2a90:	33 1f       	adc	r19, r19
    2a92:	4a 95       	dec	r20
    2a94:	d2 f7       	brpl	.-12     	; 0x2a8a <__udivdi3+0x152>
    2a96:	0d a3       	lds	r16, 0x5d
    2a98:	1e a3       	lds	r17, 0x5e
    2a9a:	2f a3       	lds	r18, 0x5f
    2a9c:	38 a7       	lds	r19, 0x78
    2a9e:	25 01       	movw	r4, r10
    2aa0:	66 24       	eor	r6, r6
    2aa2:	77 24       	eor	r7, r7
    2aa4:	95 01       	movw	r18, r10
    2aa6:	84 01       	movw	r16, r8
    2aa8:	20 70       	andi	r18, 0x00	; 0
    2aaa:	30 70       	andi	r19, 0x00	; 0
    2aac:	09 a3       	lds	r16, 0x59
    2aae:	1a a3       	lds	r17, 0x5a
    2ab0:	2b a3       	lds	r18, 0x5b
    2ab2:	3c a3       	lds	r19, 0x5c
    2ab4:	c7 01       	movw	r24, r14
    2ab6:	b6 01       	movw	r22, r12
    2ab8:	a3 01       	movw	r20, r6
    2aba:	92 01       	movw	r18, r4
    2abc:	0e 94 9e 20 	call	0x413c	; 0x413c <__udivmodsi4>
    2ac0:	2d 8f       	std	Y+29, r18	; 0x1d
    2ac2:	3e 8f       	std	Y+30, r19	; 0x1e
    2ac4:	4f 8f       	std	Y+31, r20	; 0x1f
    2ac6:	58 a3       	lds	r21, 0x58
    2ac8:	69 8f       	std	Y+25, r22	; 0x19
    2aca:	7a 8f       	std	Y+26, r23	; 0x1a
    2acc:	8b 8f       	std	Y+27, r24	; 0x1b
    2ace:	9c 8f       	std	Y+28, r25	; 0x1c
    2ad0:	c7 01       	movw	r24, r14
    2ad2:	b6 01       	movw	r22, r12
    2ad4:	a3 01       	movw	r20, r6
    2ad6:	92 01       	movw	r18, r4
    2ad8:	0e 94 9e 20 	call	0x413c	; 0x413c <__udivmodsi4>
    2adc:	ca 01       	movw	r24, r20
    2ade:	b9 01       	movw	r22, r18
    2ae0:	29 a1       	lds	r18, 0x49
    2ae2:	3a a1       	lds	r19, 0x4a
    2ae4:	4b a1       	lds	r20, 0x4b
    2ae6:	5c a1       	lds	r21, 0x4c
    2ae8:	0e 94 7f 20 	call	0x40fe	; 0x40fe <__mulsi3>
    2aec:	ab 01       	movw	r20, r22
    2aee:	bc 01       	movw	r22, r24
    2af0:	09 8d       	ldd	r16, Y+25	; 0x19
    2af2:	1a 8d       	ldd	r17, Y+26	; 0x1a
    2af4:	2b 8d       	ldd	r18, Y+27	; 0x1b
    2af6:	3c 8d       	ldd	r19, Y+28	; 0x1c
    2af8:	78 01       	movw	r14, r16
    2afa:	dd 24       	eor	r13, r13
    2afc:	cc 24       	eor	r12, r12
    2afe:	0d a1       	lds	r16, 0x4d
    2b00:	1e a1       	lds	r17, 0x4e
    2b02:	2f a1       	lds	r18, 0x4f
    2b04:	38 a5       	lds	r19, 0x68
    2b06:	c9 01       	movw	r24, r18
    2b08:	aa 27       	eor	r26, r26
    2b0a:	bb 27       	eor	r27, r27
    2b0c:	c8 2a       	or	r12, r24
    2b0e:	d9 2a       	or	r13, r25
    2b10:	ea 2a       	or	r14, r26
    2b12:	fb 2a       	or	r15, r27
    2b14:	0d 8d       	ldd	r16, Y+29	; 0x1d
    2b16:	1e 8d       	ldd	r17, Y+30	; 0x1e
    2b18:	2f 8d       	ldd	r18, Y+31	; 0x1f
    2b1a:	38 a1       	lds	r19, 0x48
    2b1c:	c4 16       	cp	r12, r20
    2b1e:	d5 06       	cpc	r13, r21
    2b20:	e6 06       	cpc	r14, r22
    2b22:	f7 06       	cpc	r15, r23
    2b24:	38 f5       	brcc	.+78     	; 0x2b74 <__udivdi3+0x23c>
    2b26:	01 50       	subi	r16, 0x01	; 1
    2b28:	10 40       	sbci	r17, 0x00	; 0
    2b2a:	20 40       	sbci	r18, 0x00	; 0
    2b2c:	30 40       	sbci	r19, 0x00	; 0
    2b2e:	09 8f       	std	Y+25, r16	; 0x19
    2b30:	1a 8f       	std	Y+26, r17	; 0x1a
    2b32:	2b 8f       	std	Y+27, r18	; 0x1b
    2b34:	3c 8f       	std	Y+28, r19	; 0x1c
    2b36:	c8 0c       	add	r12, r8
    2b38:	d9 1c       	adc	r13, r9
    2b3a:	ea 1c       	adc	r14, r10
    2b3c:	fb 1c       	adc	r15, r11
    2b3e:	c8 14       	cp	r12, r8
    2b40:	d9 04       	cpc	r13, r9
    2b42:	ea 04       	cpc	r14, r10
    2b44:	fb 04       	cpc	r15, r11
    2b46:	d0 f0       	brcs	.+52     	; 0x2b7c <__udivdi3+0x244>
    2b48:	c4 16       	cp	r12, r20
    2b4a:	d5 06       	cpc	r13, r21
    2b4c:	e6 06       	cpc	r14, r22
    2b4e:	f7 06       	cpc	r15, r23
    2b50:	a8 f4       	brcc	.+42     	; 0x2b7c <__udivdi3+0x244>
    2b52:	0d 8d       	ldd	r16, Y+29	; 0x1d
    2b54:	1e 8d       	ldd	r17, Y+30	; 0x1e
    2b56:	2f 8d       	ldd	r18, Y+31	; 0x1f
    2b58:	38 a1       	lds	r19, 0x48
    2b5a:	02 50       	subi	r16, 0x02	; 2
    2b5c:	10 40       	sbci	r17, 0x00	; 0
    2b5e:	20 40       	sbci	r18, 0x00	; 0
    2b60:	30 40       	sbci	r19, 0x00	; 0
    2b62:	09 8f       	std	Y+25, r16	; 0x19
    2b64:	1a 8f       	std	Y+26, r17	; 0x1a
    2b66:	2b 8f       	std	Y+27, r18	; 0x1b
    2b68:	3c 8f       	std	Y+28, r19	; 0x1c
    2b6a:	c8 0c       	add	r12, r8
    2b6c:	d9 1c       	adc	r13, r9
    2b6e:	ea 1c       	adc	r14, r10
    2b70:	fb 1c       	adc	r15, r11
    2b72:	04 c0       	rjmp	.+8      	; 0x2b7c <__udivdi3+0x244>
    2b74:	09 8f       	std	Y+25, r16	; 0x19
    2b76:	1a 8f       	std	Y+26, r17	; 0x1a
    2b78:	2b 8f       	std	Y+27, r18	; 0x1b
    2b7a:	3c 8f       	std	Y+28, r19	; 0x1c
    2b7c:	c4 1a       	sub	r12, r20
    2b7e:	d5 0a       	sbc	r13, r21
    2b80:	e6 0a       	sbc	r14, r22
    2b82:	f7 0a       	sbc	r15, r23
    2b84:	c7 01       	movw	r24, r14
    2b86:	b6 01       	movw	r22, r12
    2b88:	a3 01       	movw	r20, r6
    2b8a:	92 01       	movw	r18, r4
    2b8c:	0e 94 9e 20 	call	0x413c	; 0x413c <__udivmodsi4>
    2b90:	2d 8f       	std	Y+29, r18	; 0x1d
    2b92:	3e 8f       	std	Y+30, r19	; 0x1e
    2b94:	4f 8f       	std	Y+31, r20	; 0x1f
    2b96:	58 a3       	lds	r21, 0x58
    2b98:	69 a7       	lds	r22, 0x79
    2b9a:	7a a7       	lds	r23, 0x7a
    2b9c:	8b a7       	lds	r24, 0x7b
    2b9e:	9c a7       	lds	r25, 0x7c
    2ba0:	c7 01       	movw	r24, r14
    2ba2:	b6 01       	movw	r22, r12
    2ba4:	a3 01       	movw	r20, r6
    2ba6:	92 01       	movw	r18, r4
    2ba8:	0e 94 9e 20 	call	0x413c	; 0x413c <__udivmodsi4>
    2bac:	ca 01       	movw	r24, r20
    2bae:	b9 01       	movw	r22, r18
    2bb0:	29 a1       	lds	r18, 0x49
    2bb2:	3a a1       	lds	r19, 0x4a
    2bb4:	4b a1       	lds	r20, 0x4b
    2bb6:	5c a1       	lds	r21, 0x4c
    2bb8:	0e 94 7f 20 	call	0x40fe	; 0x40fe <__mulsi3>
    2bbc:	6b 01       	movw	r12, r22
    2bbe:	7c 01       	movw	r14, r24
    2bc0:	49 a5       	lds	r20, 0x69
    2bc2:	5a a5       	lds	r21, 0x6a
    2bc4:	6b a5       	lds	r22, 0x6b
    2bc6:	7c a5       	lds	r23, 0x6c
    2bc8:	9a 01       	movw	r18, r20
    2bca:	11 27       	eor	r17, r17
    2bcc:	00 27       	eor	r16, r16
    2bce:	4d a1       	lds	r20, 0x4d
    2bd0:	5e a1       	lds	r21, 0x4e
    2bd2:	6f a1       	lds	r22, 0x4f
    2bd4:	78 a5       	lds	r23, 0x68
    2bd6:	60 70       	andi	r22, 0x00	; 0
    2bd8:	70 70       	andi	r23, 0x00	; 0
    2bda:	04 2b       	or	r16, r20
    2bdc:	15 2b       	or	r17, r21
    2bde:	26 2b       	or	r18, r22
    2be0:	37 2b       	or	r19, r23
    2be2:	8d 8d       	ldd	r24, Y+29	; 0x1d
    2be4:	9e 8d       	ldd	r25, Y+30	; 0x1e
    2be6:	af 8d       	ldd	r26, Y+31	; 0x1f
    2be8:	b8 a1       	lds	r27, 0x48
    2bea:	0c 15       	cp	r16, r12
    2bec:	1d 05       	cpc	r17, r13
    2bee:	2e 05       	cpc	r18, r14
    2bf0:	3f 05       	cpc	r19, r15
    2bf2:	c0 f4       	brcc	.+48     	; 0x2c24 <__udivdi3+0x2ec>
    2bf4:	01 97       	sbiw	r24, 0x01	; 1
    2bf6:	a1 09       	sbc	r26, r1
    2bf8:	b1 09       	sbc	r27, r1
    2bfa:	08 0d       	add	r16, r8
    2bfc:	19 1d       	adc	r17, r9
    2bfe:	2a 1d       	adc	r18, r10
    2c00:	3b 1d       	adc	r19, r11
    2c02:	08 15       	cp	r16, r8
    2c04:	19 05       	cpc	r17, r9
    2c06:	2a 05       	cpc	r18, r10
    2c08:	3b 05       	cpc	r19, r11
    2c0a:	60 f0       	brcs	.+24     	; 0x2c24 <__udivdi3+0x2ec>
    2c0c:	0c 15       	cp	r16, r12
    2c0e:	1d 05       	cpc	r17, r13
    2c10:	2e 05       	cpc	r18, r14
    2c12:	3f 05       	cpc	r19, r15
    2c14:	38 f4       	brcc	.+14     	; 0x2c24 <__udivdi3+0x2ec>
    2c16:	8d 8d       	ldd	r24, Y+29	; 0x1d
    2c18:	9e 8d       	ldd	r25, Y+30	; 0x1e
    2c1a:	af 8d       	ldd	r26, Y+31	; 0x1f
    2c1c:	b8 a1       	lds	r27, 0x48
    2c1e:	02 97       	sbiw	r24, 0x02	; 2
    2c20:	a1 09       	sbc	r26, r1
    2c22:	b1 09       	sbc	r27, r1
    2c24:	09 8d       	ldd	r16, Y+25	; 0x19
    2c26:	1a 8d       	ldd	r17, Y+26	; 0x1a
    2c28:	2b 8d       	ldd	r18, Y+27	; 0x1b
    2c2a:	3c 8d       	ldd	r19, Y+28	; 0x1c
    2c2c:	78 01       	movw	r14, r16
    2c2e:	dd 24       	eor	r13, r13
    2c30:	cc 24       	eor	r12, r12
    2c32:	c8 2a       	or	r12, r24
    2c34:	d9 2a       	or	r13, r25
    2c36:	ea 2a       	or	r14, r26
    2c38:	fb 2a       	or	r15, r27
    2c3a:	a5 c4       	rjmp	.+2378   	; 0x3586 <__udivdi3+0xc4e>
    2c3c:	81 14       	cp	r8, r1
    2c3e:	91 04       	cpc	r9, r1
    2c40:	a1 04       	cpc	r10, r1
    2c42:	b1 04       	cpc	r11, r1
    2c44:	51 f4       	brne	.+20     	; 0x2c5a <__udivdi3+0x322>
    2c46:	61 e0       	ldi	r22, 0x01	; 1
    2c48:	70 e0       	ldi	r23, 0x00	; 0
    2c4a:	80 e0       	ldi	r24, 0x00	; 0
    2c4c:	90 e0       	ldi	r25, 0x00	; 0
    2c4e:	a5 01       	movw	r20, r10
    2c50:	94 01       	movw	r18, r8
    2c52:	0e 94 9e 20 	call	0x413c	; 0x413c <__udivmodsi4>
    2c56:	49 01       	movw	r8, r18
    2c58:	5a 01       	movw	r10, r20
    2c5a:	10 e0       	ldi	r17, 0x00	; 0
    2c5c:	81 16       	cp	r8, r17
    2c5e:	10 e0       	ldi	r17, 0x00	; 0
    2c60:	91 06       	cpc	r9, r17
    2c62:	11 e0       	ldi	r17, 0x01	; 1
    2c64:	a1 06       	cpc	r10, r17
    2c66:	10 e0       	ldi	r17, 0x00	; 0
    2c68:	b1 06       	cpc	r11, r17
    2c6a:	58 f4       	brcc	.+22     	; 0x2c82 <__udivdi3+0x34a>
    2c6c:	2f ef       	ldi	r18, 0xFF	; 255
    2c6e:	82 16       	cp	r8, r18
    2c70:	91 04       	cpc	r9, r1
    2c72:	a1 04       	cpc	r10, r1
    2c74:	b1 04       	cpc	r11, r1
    2c76:	09 f0       	breq	.+2      	; 0x2c7a <__udivdi3+0x342>
    2c78:	90 f4       	brcc	.+36     	; 0x2c9e <__udivdi3+0x366>
    2c7a:	80 e0       	ldi	r24, 0x00	; 0
    2c7c:	90 e0       	ldi	r25, 0x00	; 0
    2c7e:	dc 01       	movw	r26, r24
    2c80:	17 c0       	rjmp	.+46     	; 0x2cb0 <__udivdi3+0x378>
    2c82:	30 e0       	ldi	r19, 0x00	; 0
    2c84:	83 16       	cp	r8, r19
    2c86:	30 e0       	ldi	r19, 0x00	; 0
    2c88:	93 06       	cpc	r9, r19
    2c8a:	30 e0       	ldi	r19, 0x00	; 0
    2c8c:	a3 06       	cpc	r10, r19
    2c8e:	31 e0       	ldi	r19, 0x01	; 1
    2c90:	b3 06       	cpc	r11, r19
    2c92:	50 f4       	brcc	.+20     	; 0x2ca8 <__udivdi3+0x370>
    2c94:	80 e1       	ldi	r24, 0x10	; 16
    2c96:	90 e0       	ldi	r25, 0x00	; 0
    2c98:	a0 e0       	ldi	r26, 0x00	; 0
    2c9a:	b0 e0       	ldi	r27, 0x00	; 0
    2c9c:	09 c0       	rjmp	.+18     	; 0x2cb0 <__udivdi3+0x378>
    2c9e:	88 e0       	ldi	r24, 0x08	; 8
    2ca0:	90 e0       	ldi	r25, 0x00	; 0
    2ca2:	a0 e0       	ldi	r26, 0x00	; 0
    2ca4:	b0 e0       	ldi	r27, 0x00	; 0
    2ca6:	04 c0       	rjmp	.+8      	; 0x2cb0 <__udivdi3+0x378>
    2ca8:	88 e1       	ldi	r24, 0x18	; 24
    2caa:	90 e0       	ldi	r25, 0x00	; 0
    2cac:	a0 e0       	ldi	r26, 0x00	; 0
    2cae:	b0 e0       	ldi	r27, 0x00	; 0
    2cb0:	b5 01       	movw	r22, r10
    2cb2:	a4 01       	movw	r20, r8
    2cb4:	08 2e       	mov	r0, r24
    2cb6:	04 c0       	rjmp	.+8      	; 0x2cc0 <__udivdi3+0x388>
    2cb8:	76 95       	lsr	r23
    2cba:	67 95       	ror	r22
    2cbc:	57 95       	ror	r21
    2cbe:	47 95       	ror	r20
    2cc0:	0a 94       	dec	r0
    2cc2:	d2 f7       	brpl	.-12     	; 0x2cb8 <__udivdi3+0x380>
    2cc4:	fa 01       	movw	r30, r20
    2cc6:	ee 56       	subi	r30, 0x6E	; 110
    2cc8:	ff 4f       	sbci	r31, 0xFF	; 255
    2cca:	20 81       	ld	r18, Z
    2ccc:	ac 01       	movw	r20, r24
    2cce:	bd 01       	movw	r22, r26
    2cd0:	42 0f       	add	r20, r18
    2cd2:	51 1d       	adc	r21, r1
    2cd4:	61 1d       	adc	r22, r1
    2cd6:	71 1d       	adc	r23, r1
    2cd8:	80 e2       	ldi	r24, 0x20	; 32
    2cda:	90 e0       	ldi	r25, 0x00	; 0
    2cdc:	a0 e0       	ldi	r26, 0x00	; 0
    2cde:	b0 e0       	ldi	r27, 0x00	; 0
    2ce0:	84 1b       	sub	r24, r20
    2ce2:	95 0b       	sbc	r25, r21
    2ce4:	a6 0b       	sbc	r26, r22
    2ce6:	b7 0b       	sbc	r27, r23
    2ce8:	51 f4       	brne	.+20     	; 0x2cfe <__udivdi3+0x3c6>
    2cea:	c8 18       	sub	r12, r8
    2cec:	d9 08       	sbc	r13, r9
    2cee:	ea 08       	sbc	r14, r10
    2cf0:	fb 08       	sbc	r15, r11
    2cf2:	f1 e0       	ldi	r31, 0x01	; 1
    2cf4:	4f 2e       	mov	r4, r31
    2cf6:	51 2c       	mov	r5, r1
    2cf8:	61 2c       	mov	r6, r1
    2cfa:	71 2c       	mov	r7, r1
    2cfc:	24 c1       	rjmp	.+584    	; 0x2f46 <__udivdi3+0x60e>
    2cfe:	08 2e       	mov	r0, r24
    2d00:	04 c0       	rjmp	.+8      	; 0x2d0a <__udivdi3+0x3d2>
    2d02:	88 0c       	add	r8, r8
    2d04:	99 1c       	adc	r9, r9
    2d06:	aa 1c       	adc	r10, r10
    2d08:	bb 1c       	adc	r11, r11
    2d0a:	0a 94       	dec	r0
    2d0c:	d2 f7       	brpl	.-12     	; 0x2d02 <__udivdi3+0x3ca>
    2d0e:	97 01       	movw	r18, r14
    2d10:	86 01       	movw	r16, r12
    2d12:	04 2e       	mov	r0, r20
    2d14:	04 c0       	rjmp	.+8      	; 0x2d1e <__udivdi3+0x3e6>
    2d16:	36 95       	lsr	r19
    2d18:	27 95       	ror	r18
    2d1a:	17 95       	ror	r17
    2d1c:	07 95       	ror	r16
    2d1e:	0a 94       	dec	r0
    2d20:	d2 f7       	brpl	.-12     	; 0x2d16 <__udivdi3+0x3de>
    2d22:	09 a3       	lds	r16, 0x59
    2d24:	1a a3       	lds	r17, 0x5a
    2d26:	2b a3       	lds	r18, 0x5b
    2d28:	3c a3       	lds	r19, 0x5c
    2d2a:	97 01       	movw	r18, r14
    2d2c:	86 01       	movw	r16, r12
    2d2e:	08 2e       	mov	r0, r24
    2d30:	04 c0       	rjmp	.+8      	; 0x2d3a <__udivdi3+0x402>
    2d32:	00 0f       	add	r16, r16
    2d34:	11 1f       	adc	r17, r17
    2d36:	22 1f       	adc	r18, r18
    2d38:	33 1f       	adc	r19, r19
    2d3a:	0a 94       	dec	r0
    2d3c:	d2 f7       	brpl	.-12     	; 0x2d32 <__udivdi3+0x3fa>
    2d3e:	0d 8f       	std	Y+29, r16	; 0x1d
    2d40:	1e 8f       	std	Y+30, r17	; 0x1e
    2d42:	2f 8f       	std	Y+31, r18	; 0x1f
    2d44:	38 a3       	lds	r19, 0x58
    2d46:	0d a1       	lds	r16, 0x4d
    2d48:	1e a1       	lds	r17, 0x4e
    2d4a:	2f a1       	lds	r18, 0x4f
    2d4c:	38 a5       	lds	r19, 0x68
    2d4e:	04 c0       	rjmp	.+8      	; 0x2d58 <__udivdi3+0x420>
    2d50:	36 95       	lsr	r19
    2d52:	27 95       	ror	r18
    2d54:	17 95       	ror	r17
    2d56:	07 95       	ror	r16
    2d58:	4a 95       	dec	r20
    2d5a:	d2 f7       	brpl	.-12     	; 0x2d50 <__udivdi3+0x418>
    2d5c:	b9 01       	movw	r22, r18
    2d5e:	a8 01       	movw	r20, r16
    2d60:	0d 8d       	ldd	r16, Y+29	; 0x1d
    2d62:	1e 8d       	ldd	r17, Y+30	; 0x1e
    2d64:	2f 8d       	ldd	r18, Y+31	; 0x1f
    2d66:	38 a1       	lds	r19, 0x48
    2d68:	04 2b       	or	r16, r20
    2d6a:	15 2b       	or	r17, r21
    2d6c:	26 2b       	or	r18, r22
    2d6e:	37 2b       	or	r19, r23
    2d70:	0d 8f       	std	Y+29, r16	; 0x1d
    2d72:	1e 8f       	std	Y+30, r17	; 0x1e
    2d74:	2f 8f       	std	Y+31, r18	; 0x1f
    2d76:	38 a3       	lds	r19, 0x58
    2d78:	0d a1       	lds	r16, 0x4d
    2d7a:	1e a1       	lds	r17, 0x4e
    2d7c:	2f a1       	lds	r18, 0x4f
    2d7e:	38 a5       	lds	r19, 0x68
    2d80:	04 c0       	rjmp	.+8      	; 0x2d8a <__udivdi3+0x452>
    2d82:	00 0f       	add	r16, r16
    2d84:	11 1f       	adc	r17, r17
    2d86:	22 1f       	adc	r18, r18
    2d88:	33 1f       	adc	r19, r19
    2d8a:	8a 95       	dec	r24
    2d8c:	d2 f7       	brpl	.-12     	; 0x2d82 <__udivdi3+0x44a>
    2d8e:	0d a3       	lds	r16, 0x5d
    2d90:	1e a3       	lds	r17, 0x5e
    2d92:	2f a3       	lds	r18, 0x5f
    2d94:	38 a7       	lds	r19, 0x78
    2d96:	25 01       	movw	r4, r10
    2d98:	66 24       	eor	r6, r6
    2d9a:	77 24       	eor	r7, r7
    2d9c:	95 01       	movw	r18, r10
    2d9e:	84 01       	movw	r16, r8
    2da0:	20 70       	andi	r18, 0x00	; 0
    2da2:	30 70       	andi	r19, 0x00	; 0
    2da4:	09 a7       	lds	r16, 0x79
    2da6:	1a a7       	lds	r17, 0x7a
    2da8:	2b a7       	lds	r18, 0x7b
    2daa:	3c a7       	lds	r19, 0x7c
    2dac:	69 a1       	lds	r22, 0x49
    2dae:	7a a1       	lds	r23, 0x4a
    2db0:	8b a1       	lds	r24, 0x4b
    2db2:	9c a1       	lds	r25, 0x4c
    2db4:	a3 01       	movw	r20, r6
    2db6:	92 01       	movw	r18, r4
    2db8:	0e 94 9e 20 	call	0x413c	; 0x413c <__udivmodsi4>
    2dbc:	29 8f       	std	Y+25, r18	; 0x19
    2dbe:	3a 8f       	std	Y+26, r19	; 0x1a
    2dc0:	4b 8f       	std	Y+27, r20	; 0x1b
    2dc2:	5c 8f       	std	Y+28, r21	; 0x1c
    2dc4:	6b 01       	movw	r12, r22
    2dc6:	7c 01       	movw	r14, r24
    2dc8:	69 a1       	lds	r22, 0x49
    2dca:	7a a1       	lds	r23, 0x4a
    2dcc:	8b a1       	lds	r24, 0x4b
    2dce:	9c a1       	lds	r25, 0x4c
    2dd0:	a3 01       	movw	r20, r6
    2dd2:	92 01       	movw	r18, r4
    2dd4:	0e 94 9e 20 	call	0x413c	; 0x413c <__udivmodsi4>
    2dd8:	ca 01       	movw	r24, r20
    2dda:	b9 01       	movw	r22, r18
    2ddc:	29 a5       	lds	r18, 0x69
    2dde:	3a a5       	lds	r19, 0x6a
    2de0:	4b a5       	lds	r20, 0x6b
    2de2:	5c a5       	lds	r21, 0x6c
    2de4:	0e 94 7f 20 	call	0x40fe	; 0x40fe <__mulsi3>
    2de8:	ab 01       	movw	r20, r22
    2dea:	bc 01       	movw	r22, r24
    2dec:	76 01       	movw	r14, r12
    2dee:	dd 24       	eor	r13, r13
    2df0:	cc 24       	eor	r12, r12
    2df2:	0d 8d       	ldd	r16, Y+29	; 0x1d
    2df4:	1e 8d       	ldd	r17, Y+30	; 0x1e
    2df6:	2f 8d       	ldd	r18, Y+31	; 0x1f
    2df8:	38 a1       	lds	r19, 0x48
    2dfa:	c9 01       	movw	r24, r18
    2dfc:	aa 27       	eor	r26, r26
    2dfe:	bb 27       	eor	r27, r27
    2e00:	c8 2a       	or	r12, r24
    2e02:	d9 2a       	or	r13, r25
    2e04:	ea 2a       	or	r14, r26
    2e06:	fb 2a       	or	r15, r27
    2e08:	09 8d       	ldd	r16, Y+25	; 0x19
    2e0a:	1a 8d       	ldd	r17, Y+26	; 0x1a
    2e0c:	2b 8d       	ldd	r18, Y+27	; 0x1b
    2e0e:	3c 8d       	ldd	r19, Y+28	; 0x1c
    2e10:	c4 16       	cp	r12, r20
    2e12:	d5 06       	cpc	r13, r21
    2e14:	e6 06       	cpc	r14, r22
    2e16:	f7 06       	cpc	r15, r23
    2e18:	38 f5       	brcc	.+78     	; 0x2e68 <__udivdi3+0x530>
    2e1a:	01 50       	subi	r16, 0x01	; 1
    2e1c:	10 40       	sbci	r17, 0x00	; 0
    2e1e:	20 40       	sbci	r18, 0x00	; 0
    2e20:	30 40       	sbci	r19, 0x00	; 0
    2e22:	09 a3       	lds	r16, 0x59
    2e24:	1a a3       	lds	r17, 0x5a
    2e26:	2b a3       	lds	r18, 0x5b
    2e28:	3c a3       	lds	r19, 0x5c
    2e2a:	c8 0c       	add	r12, r8
    2e2c:	d9 1c       	adc	r13, r9
    2e2e:	ea 1c       	adc	r14, r10
    2e30:	fb 1c       	adc	r15, r11
    2e32:	c8 14       	cp	r12, r8
    2e34:	d9 04       	cpc	r13, r9
    2e36:	ea 04       	cpc	r14, r10
    2e38:	fb 04       	cpc	r15, r11
    2e3a:	d0 f0       	brcs	.+52     	; 0x2e70 <__udivdi3+0x538>
    2e3c:	c4 16       	cp	r12, r20
    2e3e:	d5 06       	cpc	r13, r21
    2e40:	e6 06       	cpc	r14, r22
    2e42:	f7 06       	cpc	r15, r23
    2e44:	a8 f4       	brcc	.+42     	; 0x2e70 <__udivdi3+0x538>
    2e46:	09 8d       	ldd	r16, Y+25	; 0x19
    2e48:	1a 8d       	ldd	r17, Y+26	; 0x1a
    2e4a:	2b 8d       	ldd	r18, Y+27	; 0x1b
    2e4c:	3c 8d       	ldd	r19, Y+28	; 0x1c
    2e4e:	02 50       	subi	r16, 0x02	; 2
    2e50:	10 40       	sbci	r17, 0x00	; 0
    2e52:	20 40       	sbci	r18, 0x00	; 0
    2e54:	30 40       	sbci	r19, 0x00	; 0
    2e56:	09 a3       	lds	r16, 0x59
    2e58:	1a a3       	lds	r17, 0x5a
    2e5a:	2b a3       	lds	r18, 0x5b
    2e5c:	3c a3       	lds	r19, 0x5c
    2e5e:	c8 0c       	add	r12, r8
    2e60:	d9 1c       	adc	r13, r9
    2e62:	ea 1c       	adc	r14, r10
    2e64:	fb 1c       	adc	r15, r11
    2e66:	04 c0       	rjmp	.+8      	; 0x2e70 <__udivdi3+0x538>
    2e68:	09 a3       	lds	r16, 0x59
    2e6a:	1a a3       	lds	r17, 0x5a
    2e6c:	2b a3       	lds	r18, 0x5b
    2e6e:	3c a3       	lds	r19, 0x5c
    2e70:	c4 1a       	sub	r12, r20
    2e72:	d5 0a       	sbc	r13, r21
    2e74:	e6 0a       	sbc	r14, r22
    2e76:	f7 0a       	sbc	r15, r23
    2e78:	c7 01       	movw	r24, r14
    2e7a:	b6 01       	movw	r22, r12
    2e7c:	a3 01       	movw	r20, r6
    2e7e:	92 01       	movw	r18, r4
    2e80:	0e 94 9e 20 	call	0x413c	; 0x413c <__udivmodsi4>
    2e84:	29 8f       	std	Y+25, r18	; 0x19
    2e86:	3a 8f       	std	Y+26, r19	; 0x1a
    2e88:	4b 8f       	std	Y+27, r20	; 0x1b
    2e8a:	5c 8f       	std	Y+28, r21	; 0x1c
    2e8c:	6d a7       	lds	r22, 0x7d
    2e8e:	7e a7       	lds	r23, 0x7e
    2e90:	8f a7       	lds	r24, 0x7f
    2e92:	98 ab       	sts	0x58, r25
    2e94:	c7 01       	movw	r24, r14
    2e96:	b6 01       	movw	r22, r12
    2e98:	a3 01       	movw	r20, r6
    2e9a:	92 01       	movw	r18, r4
    2e9c:	0e 94 9e 20 	call	0x413c	; 0x413c <__udivmodsi4>
    2ea0:	ca 01       	movw	r24, r20
    2ea2:	b9 01       	movw	r22, r18
    2ea4:	29 a5       	lds	r18, 0x69
    2ea6:	3a a5       	lds	r19, 0x6a
    2ea8:	4b a5       	lds	r20, 0x6b
    2eaa:	5c a5       	lds	r21, 0x6c
    2eac:	0e 94 7f 20 	call	0x40fe	; 0x40fe <__mulsi3>
    2eb0:	8b 01       	movw	r16, r22
    2eb2:	9c 01       	movw	r18, r24
    2eb4:	4d a5       	lds	r20, 0x6d
    2eb6:	5e a5       	lds	r21, 0x6e
    2eb8:	6f a5       	lds	r22, 0x6f
    2eba:	78 a9       	sts	0x48, r23
    2ebc:	da 01       	movw	r26, r20
    2ebe:	99 27       	eor	r25, r25
    2ec0:	88 27       	eor	r24, r24
    2ec2:	4d 8d       	ldd	r20, Y+29	; 0x1d
    2ec4:	5e 8d       	ldd	r21, Y+30	; 0x1e
    2ec6:	6f 8d       	ldd	r22, Y+31	; 0x1f
    2ec8:	78 a1       	lds	r23, 0x48
    2eca:	60 70       	andi	r22, 0x00	; 0
    2ecc:	70 70       	andi	r23, 0x00	; 0
    2ece:	84 2b       	or	r24, r20
    2ed0:	95 2b       	or	r25, r21
    2ed2:	a6 2b       	or	r26, r22
    2ed4:	b7 2b       	or	r27, r23
    2ed6:	49 8d       	ldd	r20, Y+25	; 0x19
    2ed8:	5a 8d       	ldd	r21, Y+26	; 0x1a
    2eda:	6b 8d       	ldd	r22, Y+27	; 0x1b
    2edc:	7c 8d       	ldd	r23, Y+28	; 0x1c
    2ede:	80 17       	cp	r24, r16
    2ee0:	91 07       	cpc	r25, r17
    2ee2:	a2 07       	cpc	r26, r18
    2ee4:	b3 07       	cpc	r27, r19
    2ee6:	f0 f4       	brcc	.+60     	; 0x2f24 <__udivdi3+0x5ec>
    2ee8:	41 50       	subi	r20, 0x01	; 1
    2eea:	50 40       	sbci	r21, 0x00	; 0
    2eec:	60 40       	sbci	r22, 0x00	; 0
    2eee:	70 40       	sbci	r23, 0x00	; 0
    2ef0:	88 0d       	add	r24, r8
    2ef2:	99 1d       	adc	r25, r9
    2ef4:	aa 1d       	adc	r26, r10
    2ef6:	bb 1d       	adc	r27, r11
    2ef8:	88 15       	cp	r24, r8
    2efa:	99 05       	cpc	r25, r9
    2efc:	aa 05       	cpc	r26, r10
    2efe:	bb 05       	cpc	r27, r11
    2f00:	88 f0       	brcs	.+34     	; 0x2f24 <__udivdi3+0x5ec>
    2f02:	80 17       	cp	r24, r16
    2f04:	91 07       	cpc	r25, r17
    2f06:	a2 07       	cpc	r26, r18
    2f08:	b3 07       	cpc	r27, r19
    2f0a:	60 f4       	brcc	.+24     	; 0x2f24 <__udivdi3+0x5ec>
    2f0c:	49 8d       	ldd	r20, Y+25	; 0x19
    2f0e:	5a 8d       	ldd	r21, Y+26	; 0x1a
    2f10:	6b 8d       	ldd	r22, Y+27	; 0x1b
    2f12:	7c 8d       	ldd	r23, Y+28	; 0x1c
    2f14:	42 50       	subi	r20, 0x02	; 2
    2f16:	50 40       	sbci	r21, 0x00	; 0
    2f18:	60 40       	sbci	r22, 0x00	; 0
    2f1a:	70 40       	sbci	r23, 0x00	; 0
    2f1c:	88 0d       	add	r24, r8
    2f1e:	99 1d       	adc	r25, r9
    2f20:	aa 1d       	adc	r26, r10
    2f22:	bb 1d       	adc	r27, r11
    2f24:	6c 01       	movw	r12, r24
    2f26:	7d 01       	movw	r14, r26
    2f28:	c0 1a       	sub	r12, r16
    2f2a:	d1 0a       	sbc	r13, r17
    2f2c:	e2 0a       	sbc	r14, r18
    2f2e:	f3 0a       	sbc	r15, r19
    2f30:	09 a1       	lds	r16, 0x49
    2f32:	1a a1       	lds	r17, 0x4a
    2f34:	2b a1       	lds	r18, 0x4b
    2f36:	3c a1       	lds	r19, 0x4c
    2f38:	38 01       	movw	r6, r16
    2f3a:	55 24       	eor	r5, r5
    2f3c:	44 24       	eor	r4, r4
    2f3e:	44 2a       	or	r4, r20
    2f40:	55 2a       	or	r5, r21
    2f42:	66 2a       	or	r6, r22
    2f44:	77 2a       	or	r7, r23
    2f46:	85 01       	movw	r16, r10
    2f48:	22 27       	eor	r18, r18
    2f4a:	33 27       	eor	r19, r19
    2f4c:	0d 8f       	std	Y+29, r16	; 0x1d
    2f4e:	1e 8f       	std	Y+30, r17	; 0x1e
    2f50:	2f 8f       	std	Y+31, r18	; 0x1f
    2f52:	38 a3       	lds	r19, 0x58
    2f54:	95 01       	movw	r18, r10
    2f56:	84 01       	movw	r16, r8
    2f58:	20 70       	andi	r18, 0x00	; 0
    2f5a:	30 70       	andi	r19, 0x00	; 0
    2f5c:	09 a7       	lds	r16, 0x79
    2f5e:	1a a7       	lds	r17, 0x7a
    2f60:	2b a7       	lds	r18, 0x7b
    2f62:	3c a7       	lds	r19, 0x7c
    2f64:	c7 01       	movw	r24, r14
    2f66:	b6 01       	movw	r22, r12
    2f68:	2d 8d       	ldd	r18, Y+29	; 0x1d
    2f6a:	3e 8d       	ldd	r19, Y+30	; 0x1e
    2f6c:	4f 8d       	ldd	r20, Y+31	; 0x1f
    2f6e:	58 a1       	lds	r21, 0x48
    2f70:	0e 94 9e 20 	call	0x413c	; 0x413c <__udivmodsi4>
    2f74:	29 8f       	std	Y+25, r18	; 0x19
    2f76:	3a 8f       	std	Y+26, r19	; 0x1a
    2f78:	4b 8f       	std	Y+27, r20	; 0x1b
    2f7a:	5c 8f       	std	Y+28, r21	; 0x1c
    2f7c:	69 a3       	lds	r22, 0x59
    2f7e:	7a a3       	lds	r23, 0x5a
    2f80:	8b a3       	lds	r24, 0x5b
    2f82:	9c a3       	lds	r25, 0x5c
    2f84:	c7 01       	movw	r24, r14
    2f86:	b6 01       	movw	r22, r12
    2f88:	2d 8d       	ldd	r18, Y+29	; 0x1d
    2f8a:	3e 8d       	ldd	r19, Y+30	; 0x1e
    2f8c:	4f 8d       	ldd	r20, Y+31	; 0x1f
    2f8e:	58 a1       	lds	r21, 0x48
    2f90:	0e 94 9e 20 	call	0x413c	; 0x413c <__udivmodsi4>
    2f94:	ca 01       	movw	r24, r20
    2f96:	b9 01       	movw	r22, r18
    2f98:	29 a5       	lds	r18, 0x69
    2f9a:	3a a5       	lds	r19, 0x6a
    2f9c:	4b a5       	lds	r20, 0x6b
    2f9e:	5c a5       	lds	r21, 0x6c
    2fa0:	0e 94 7f 20 	call	0x40fe	; 0x40fe <__mulsi3>
    2fa4:	ab 01       	movw	r20, r22
    2fa6:	bc 01       	movw	r22, r24
    2fa8:	09 a1       	lds	r16, 0x49
    2faa:	1a a1       	lds	r17, 0x4a
    2fac:	2b a1       	lds	r18, 0x4b
    2fae:	3c a1       	lds	r19, 0x4c
    2fb0:	78 01       	movw	r14, r16
    2fb2:	dd 24       	eor	r13, r13
    2fb4:	cc 24       	eor	r12, r12
    2fb6:	0d a1       	lds	r16, 0x4d
    2fb8:	1e a1       	lds	r17, 0x4e
    2fba:	2f a1       	lds	r18, 0x4f
    2fbc:	38 a5       	lds	r19, 0x68
    2fbe:	c9 01       	movw	r24, r18
    2fc0:	aa 27       	eor	r26, r26
    2fc2:	bb 27       	eor	r27, r27
    2fc4:	c8 2a       	or	r12, r24
    2fc6:	d9 2a       	or	r13, r25
    2fc8:	ea 2a       	or	r14, r26
    2fca:	fb 2a       	or	r15, r27
    2fcc:	09 8d       	ldd	r16, Y+25	; 0x19
    2fce:	1a 8d       	ldd	r17, Y+26	; 0x1a
    2fd0:	2b 8d       	ldd	r18, Y+27	; 0x1b
    2fd2:	3c 8d       	ldd	r19, Y+28	; 0x1c
    2fd4:	c4 16       	cp	r12, r20
    2fd6:	d5 06       	cpc	r13, r21
    2fd8:	e6 06       	cpc	r14, r22
    2fda:	f7 06       	cpc	r15, r23
    2fdc:	38 f5       	brcc	.+78     	; 0x302c <__udivdi3+0x6f4>
    2fde:	01 50       	subi	r16, 0x01	; 1
    2fe0:	10 40       	sbci	r17, 0x00	; 0
    2fe2:	20 40       	sbci	r18, 0x00	; 0
    2fe4:	30 40       	sbci	r19, 0x00	; 0
    2fe6:	09 a3       	lds	r16, 0x59
    2fe8:	1a a3       	lds	r17, 0x5a
    2fea:	2b a3       	lds	r18, 0x5b
    2fec:	3c a3       	lds	r19, 0x5c
    2fee:	c8 0c       	add	r12, r8
    2ff0:	d9 1c       	adc	r13, r9
    2ff2:	ea 1c       	adc	r14, r10
    2ff4:	fb 1c       	adc	r15, r11
    2ff6:	c8 14       	cp	r12, r8
    2ff8:	d9 04       	cpc	r13, r9
    2ffa:	ea 04       	cpc	r14, r10
    2ffc:	fb 04       	cpc	r15, r11
    2ffe:	d0 f0       	brcs	.+52     	; 0x3034 <__udivdi3+0x6fc>
    3000:	c4 16       	cp	r12, r20
    3002:	d5 06       	cpc	r13, r21
    3004:	e6 06       	cpc	r14, r22
    3006:	f7 06       	cpc	r15, r23
    3008:	a8 f4       	brcc	.+42     	; 0x3034 <__udivdi3+0x6fc>
    300a:	09 8d       	ldd	r16, Y+25	; 0x19
    300c:	1a 8d       	ldd	r17, Y+26	; 0x1a
    300e:	2b 8d       	ldd	r18, Y+27	; 0x1b
    3010:	3c 8d       	ldd	r19, Y+28	; 0x1c
    3012:	02 50       	subi	r16, 0x02	; 2
    3014:	10 40       	sbci	r17, 0x00	; 0
    3016:	20 40       	sbci	r18, 0x00	; 0
    3018:	30 40       	sbci	r19, 0x00	; 0
    301a:	09 a3       	lds	r16, 0x59
    301c:	1a a3       	lds	r17, 0x5a
    301e:	2b a3       	lds	r18, 0x5b
    3020:	3c a3       	lds	r19, 0x5c
    3022:	c8 0c       	add	r12, r8
    3024:	d9 1c       	adc	r13, r9
    3026:	ea 1c       	adc	r14, r10
    3028:	fb 1c       	adc	r15, r11
    302a:	04 c0       	rjmp	.+8      	; 0x3034 <__udivdi3+0x6fc>
    302c:	09 a3       	lds	r16, 0x59
    302e:	1a a3       	lds	r17, 0x5a
    3030:	2b a3       	lds	r18, 0x5b
    3032:	3c a3       	lds	r19, 0x5c
    3034:	c4 1a       	sub	r12, r20
    3036:	d5 0a       	sbc	r13, r21
    3038:	e6 0a       	sbc	r14, r22
    303a:	f7 0a       	sbc	r15, r23
    303c:	c7 01       	movw	r24, r14
    303e:	b6 01       	movw	r22, r12
    3040:	2d 8d       	ldd	r18, Y+29	; 0x1d
    3042:	3e 8d       	ldd	r19, Y+30	; 0x1e
    3044:	4f 8d       	ldd	r20, Y+31	; 0x1f
    3046:	58 a1       	lds	r21, 0x48
    3048:	0e 94 9e 20 	call	0x413c	; 0x413c <__udivmodsi4>
    304c:	29 8f       	std	Y+25, r18	; 0x19
    304e:	3a 8f       	std	Y+26, r19	; 0x1a
    3050:	4b 8f       	std	Y+27, r20	; 0x1b
    3052:	5c 8f       	std	Y+28, r21	; 0x1c
    3054:	6d a7       	lds	r22, 0x7d
    3056:	7e a7       	lds	r23, 0x7e
    3058:	8f a7       	lds	r24, 0x7f
    305a:	98 ab       	sts	0x58, r25
    305c:	c7 01       	movw	r24, r14
    305e:	b6 01       	movw	r22, r12
    3060:	2d 8d       	ldd	r18, Y+29	; 0x1d
    3062:	3e 8d       	ldd	r19, Y+30	; 0x1e
    3064:	4f 8d       	ldd	r20, Y+31	; 0x1f
    3066:	58 a1       	lds	r21, 0x48
    3068:	0e 94 9e 20 	call	0x413c	; 0x413c <__udivmodsi4>
    306c:	ca 01       	movw	r24, r20
    306e:	b9 01       	movw	r22, r18
    3070:	29 a5       	lds	r18, 0x69
    3072:	3a a5       	lds	r19, 0x6a
    3074:	4b a5       	lds	r20, 0x6b
    3076:	5c a5       	lds	r21, 0x6c
    3078:	0e 94 7f 20 	call	0x40fe	; 0x40fe <__mulsi3>
    307c:	8b 01       	movw	r16, r22
    307e:	9c 01       	movw	r18, r24
    3080:	4d a5       	lds	r20, 0x6d
    3082:	5e a5       	lds	r21, 0x6e
    3084:	6f a5       	lds	r22, 0x6f
    3086:	78 a9       	sts	0x48, r23
    3088:	da 01       	movw	r26, r20
    308a:	99 27       	eor	r25, r25
    308c:	88 27       	eor	r24, r24
    308e:	4d a1       	lds	r20, 0x4d
    3090:	5e a1       	lds	r21, 0x4e
    3092:	6f a1       	lds	r22, 0x4f
    3094:	78 a5       	lds	r23, 0x68
    3096:	60 70       	andi	r22, 0x00	; 0
    3098:	70 70       	andi	r23, 0x00	; 0
    309a:	84 2b       	or	r24, r20
    309c:	95 2b       	or	r25, r21
    309e:	a6 2b       	or	r26, r22
    30a0:	b7 2b       	or	r27, r23
    30a2:	49 8d       	ldd	r20, Y+25	; 0x19
    30a4:	5a 8d       	ldd	r21, Y+26	; 0x1a
    30a6:	6b 8d       	ldd	r22, Y+27	; 0x1b
    30a8:	7c 8d       	ldd	r23, Y+28	; 0x1c
    30aa:	80 17       	cp	r24, r16
    30ac:	91 07       	cpc	r25, r17
    30ae:	a2 07       	cpc	r26, r18
    30b0:	b3 07       	cpc	r27, r19
    30b2:	d0 f4       	brcc	.+52     	; 0x30e8 <__udivdi3+0x7b0>
    30b4:	41 50       	subi	r20, 0x01	; 1
    30b6:	50 40       	sbci	r21, 0x00	; 0
    30b8:	60 40       	sbci	r22, 0x00	; 0
    30ba:	70 40       	sbci	r23, 0x00	; 0
    30bc:	88 0d       	add	r24, r8
    30be:	99 1d       	adc	r25, r9
    30c0:	aa 1d       	adc	r26, r10
    30c2:	bb 1d       	adc	r27, r11
    30c4:	88 15       	cp	r24, r8
    30c6:	99 05       	cpc	r25, r9
    30c8:	aa 05       	cpc	r26, r10
    30ca:	bb 05       	cpc	r27, r11
    30cc:	68 f0       	brcs	.+26     	; 0x30e8 <__udivdi3+0x7b0>
    30ce:	80 17       	cp	r24, r16
    30d0:	91 07       	cpc	r25, r17
    30d2:	a2 07       	cpc	r26, r18
    30d4:	b3 07       	cpc	r27, r19
    30d6:	40 f4       	brcc	.+16     	; 0x30e8 <__udivdi3+0x7b0>
    30d8:	49 8d       	ldd	r20, Y+25	; 0x19
    30da:	5a 8d       	ldd	r21, Y+26	; 0x1a
    30dc:	6b 8d       	ldd	r22, Y+27	; 0x1b
    30de:	7c 8d       	ldd	r23, Y+28	; 0x1c
    30e0:	42 50       	subi	r20, 0x02	; 2
    30e2:	50 40       	sbci	r21, 0x00	; 0
    30e4:	60 40       	sbci	r22, 0x00	; 0
    30e6:	70 40       	sbci	r23, 0x00	; 0
    30e8:	09 a1       	lds	r16, 0x49
    30ea:	1a a1       	lds	r17, 0x4a
    30ec:	2b a1       	lds	r18, 0x4b
    30ee:	3c a1       	lds	r19, 0x4c
    30f0:	78 01       	movw	r14, r16
    30f2:	dd 24       	eor	r13, r13
    30f4:	cc 24       	eor	r12, r12
    30f6:	c4 2a       	or	r12, r20
    30f8:	d5 2a       	or	r13, r21
    30fa:	e6 2a       	or	r14, r22
    30fc:	f7 2a       	or	r15, r23
    30fe:	46 c2       	rjmp	.+1164   	; 0x358c <__udivdi3+0xc54>
    3100:	c8 16       	cp	r12, r24
    3102:	d9 06       	cpc	r13, r25
    3104:	ea 06       	cpc	r14, r26
    3106:	fb 06       	cpc	r15, r27
    3108:	08 f4       	brcc	.+2      	; 0x310c <__udivdi3+0x7d4>
    310a:	2d c2       	rjmp	.+1114   	; 0x3566 <__udivdi3+0xc2e>
    310c:	80 30       	cpi	r24, 0x00	; 0
    310e:	10 e0       	ldi	r17, 0x00	; 0
    3110:	91 07       	cpc	r25, r17
    3112:	11 e0       	ldi	r17, 0x01	; 1
    3114:	a1 07       	cpc	r26, r17
    3116:	10 e0       	ldi	r17, 0x00	; 0
    3118:	b1 07       	cpc	r27, r17
    311a:	50 f4       	brcc	.+20     	; 0x3130 <__udivdi3+0x7f8>
    311c:	8f 3f       	cpi	r24, 0xFF	; 255
    311e:	91 05       	cpc	r25, r1
    3120:	a1 05       	cpc	r26, r1
    3122:	b1 05       	cpc	r27, r1
    3124:	09 f0       	breq	.+2      	; 0x3128 <__udivdi3+0x7f0>
    3126:	88 f4       	brcc	.+34     	; 0x314a <__udivdi3+0x812>
    3128:	00 e0       	ldi	r16, 0x00	; 0
    312a:	10 e0       	ldi	r17, 0x00	; 0
    312c:	98 01       	movw	r18, r16
    312e:	16 c0       	rjmp	.+44     	; 0x315c <__udivdi3+0x824>
    3130:	80 30       	cpi	r24, 0x00	; 0
    3132:	20 e0       	ldi	r18, 0x00	; 0
    3134:	92 07       	cpc	r25, r18
    3136:	20 e0       	ldi	r18, 0x00	; 0
    3138:	a2 07       	cpc	r26, r18
    313a:	21 e0       	ldi	r18, 0x01	; 1
    313c:	b2 07       	cpc	r27, r18
    313e:	50 f4       	brcc	.+20     	; 0x3154 <__udivdi3+0x81c>
    3140:	00 e1       	ldi	r16, 0x10	; 16
    3142:	10 e0       	ldi	r17, 0x00	; 0
    3144:	20 e0       	ldi	r18, 0x00	; 0
    3146:	30 e0       	ldi	r19, 0x00	; 0
    3148:	09 c0       	rjmp	.+18     	; 0x315c <__udivdi3+0x824>
    314a:	08 e0       	ldi	r16, 0x08	; 8
    314c:	10 e0       	ldi	r17, 0x00	; 0
    314e:	20 e0       	ldi	r18, 0x00	; 0
    3150:	30 e0       	ldi	r19, 0x00	; 0
    3152:	04 c0       	rjmp	.+8      	; 0x315c <__udivdi3+0x824>
    3154:	08 e1       	ldi	r16, 0x18	; 24
    3156:	10 e0       	ldi	r17, 0x00	; 0
    3158:	20 e0       	ldi	r18, 0x00	; 0
    315a:	30 e0       	ldi	r19, 0x00	; 0
    315c:	ac 01       	movw	r20, r24
    315e:	bd 01       	movw	r22, r26
    3160:	00 2e       	mov	r0, r16
    3162:	04 c0       	rjmp	.+8      	; 0x316c <__udivdi3+0x834>
    3164:	76 95       	lsr	r23
    3166:	67 95       	ror	r22
    3168:	57 95       	ror	r21
    316a:	47 95       	ror	r20
    316c:	0a 94       	dec	r0
    316e:	d2 f7       	brpl	.-12     	; 0x3164 <__udivdi3+0x82c>
    3170:	fa 01       	movw	r30, r20
    3172:	ee 56       	subi	r30, 0x6E	; 110
    3174:	ff 4f       	sbci	r31, 0xFF	; 255
    3176:	40 81       	ld	r20, Z
    3178:	04 0f       	add	r16, r20
    317a:	11 1d       	adc	r17, r1
    317c:	21 1d       	adc	r18, r1
    317e:	31 1d       	adc	r19, r1
    3180:	40 e2       	ldi	r20, 0x20	; 32
    3182:	50 e0       	ldi	r21, 0x00	; 0
    3184:	60 e0       	ldi	r22, 0x00	; 0
    3186:	70 e0       	ldi	r23, 0x00	; 0
    3188:	40 1b       	sub	r20, r16
    318a:	51 0b       	sbc	r21, r17
    318c:	62 0b       	sbc	r22, r18
    318e:	73 0b       	sbc	r23, r19
    3190:	a1 f4       	brne	.+40     	; 0x31ba <__udivdi3+0x882>
    3192:	8c 15       	cp	r24, r12
    3194:	9d 05       	cpc	r25, r13
    3196:	ae 05       	cpc	r26, r14
    3198:	bf 05       	cpc	r27, r15
    319a:	08 f4       	brcc	.+2      	; 0x319e <__udivdi3+0x866>
    319c:	eb c1       	rjmp	.+982    	; 0x3574 <__udivdi3+0xc3c>
    319e:	0d a1       	lds	r16, 0x4d
    31a0:	1e a1       	lds	r17, 0x4e
    31a2:	2f a1       	lds	r18, 0x4f
    31a4:	38 a5       	lds	r19, 0x68
    31a6:	44 24       	eor	r4, r4
    31a8:	55 24       	eor	r5, r5
    31aa:	32 01       	movw	r6, r4
    31ac:	08 15       	cp	r16, r8
    31ae:	19 05       	cpc	r17, r9
    31b0:	2a 05       	cpc	r18, r10
    31b2:	3b 05       	cpc	r19, r11
    31b4:	08 f0       	brcs	.+2      	; 0x31b8 <__udivdi3+0x880>
    31b6:	e1 c1       	rjmp	.+962    	; 0x357a <__udivdi3+0xc42>
    31b8:	d9 c1       	rjmp	.+946    	; 0x356c <__udivdi3+0xc34>
    31ba:	34 2e       	mov	r3, r20
    31bc:	2c 01       	movw	r4, r24
    31be:	3d 01       	movw	r6, r26
    31c0:	04 c0       	rjmp	.+8      	; 0x31ca <__udivdi3+0x892>
    31c2:	44 0c       	add	r4, r4
    31c4:	55 1c       	adc	r5, r5
    31c6:	66 1c       	adc	r6, r6
    31c8:	77 1c       	adc	r7, r7
    31ca:	4a 95       	dec	r20
    31cc:	d2 f7       	brpl	.-12     	; 0x31c2 <__udivdi3+0x88a>
    31ce:	d5 01       	movw	r26, r10
    31d0:	c4 01       	movw	r24, r8
    31d2:	00 2e       	mov	r0, r16
    31d4:	04 c0       	rjmp	.+8      	; 0x31de <__udivdi3+0x8a6>
    31d6:	b6 95       	lsr	r27
    31d8:	a7 95       	ror	r26
    31da:	97 95       	ror	r25
    31dc:	87 95       	ror	r24
    31de:	0a 94       	dec	r0
    31e0:	d2 f7       	brpl	.-12     	; 0x31d6 <__udivdi3+0x89e>
    31e2:	48 2a       	or	r4, r24
    31e4:	59 2a       	or	r5, r25
    31e6:	6a 2a       	or	r6, r26
    31e8:	7b 2a       	or	r7, r27
    31ea:	a5 01       	movw	r20, r10
    31ec:	94 01       	movw	r18, r8
    31ee:	03 2c       	mov	r0, r3
    31f0:	04 c0       	rjmp	.+8      	; 0x31fa <__udivdi3+0x8c2>
    31f2:	22 0f       	add	r18, r18
    31f4:	33 1f       	adc	r19, r19
    31f6:	44 1f       	adc	r20, r20
    31f8:	55 1f       	adc	r21, r21
    31fa:	0a 94       	dec	r0
    31fc:	d2 f7       	brpl	.-12     	; 0x31f2 <__udivdi3+0x8ba>
    31fe:	29 a7       	lds	r18, 0x79
    3200:	3a a7       	lds	r19, 0x7a
    3202:	4b a7       	lds	r20, 0x7b
    3204:	5c a7       	lds	r21, 0x7c
    3206:	b7 01       	movw	r22, r14
    3208:	a6 01       	movw	r20, r12
    320a:	00 2e       	mov	r0, r16
    320c:	04 c0       	rjmp	.+8      	; 0x3216 <__udivdi3+0x8de>
    320e:	76 95       	lsr	r23
    3210:	67 95       	ror	r22
    3212:	57 95       	ror	r21
    3214:	47 95       	ror	r20
    3216:	0a 94       	dec	r0
    3218:	d2 f7       	brpl	.-12     	; 0x320e <__udivdi3+0x8d6>
    321a:	49 a3       	lds	r20, 0x59
    321c:	5a a3       	lds	r21, 0x5a
    321e:	6b a3       	lds	r22, 0x5b
    3220:	7c a3       	lds	r23, 0x5c
    3222:	c7 01       	movw	r24, r14
    3224:	b6 01       	movw	r22, r12
    3226:	03 2c       	mov	r0, r3
    3228:	04 c0       	rjmp	.+8      	; 0x3232 <__udivdi3+0x8fa>
    322a:	66 0f       	add	r22, r22
    322c:	77 1f       	adc	r23, r23
    322e:	88 1f       	adc	r24, r24
    3230:	99 1f       	adc	r25, r25
    3232:	0a 94       	dec	r0
    3234:	d2 f7       	brpl	.-12     	; 0x322a <__udivdi3+0x8f2>
    3236:	6d 8f       	std	Y+29, r22	; 0x1d
    3238:	7e 8f       	std	Y+30, r23	; 0x1e
    323a:	8f 8f       	std	Y+31, r24	; 0x1f
    323c:	98 a3       	lds	r25, 0x58
    323e:	8d a1       	lds	r24, 0x4d
    3240:	9e a1       	lds	r25, 0x4e
    3242:	af a1       	lds	r26, 0x4f
    3244:	b8 a5       	lds	r27, 0x68
    3246:	04 c0       	rjmp	.+8      	; 0x3250 <__udivdi3+0x918>
    3248:	b6 95       	lsr	r27
    324a:	a7 95       	ror	r26
    324c:	97 95       	ror	r25
    324e:	87 95       	ror	r24
    3250:	0a 95       	dec	r16
    3252:	d2 f7       	brpl	.-12     	; 0x3248 <__udivdi3+0x910>
    3254:	4d 8d       	ldd	r20, Y+29	; 0x1d
    3256:	5e 8d       	ldd	r21, Y+30	; 0x1e
    3258:	6f 8d       	ldd	r22, Y+31	; 0x1f
    325a:	78 a1       	lds	r23, 0x48
    325c:	48 2b       	or	r20, r24
    325e:	59 2b       	or	r21, r25
    3260:	6a 2b       	or	r22, r26
    3262:	7b 2b       	or	r23, r27
    3264:	4d 8f       	std	Y+29, r20	; 0x1d
    3266:	5e 8f       	std	Y+30, r21	; 0x1e
    3268:	6f 8f       	std	Y+31, r22	; 0x1f
    326a:	78 a3       	lds	r23, 0x58
    326c:	43 01       	movw	r8, r6
    326e:	aa 24       	eor	r10, r10
    3270:	bb 24       	eor	r11, r11
    3272:	93 01       	movw	r18, r6
    3274:	82 01       	movw	r16, r4
    3276:	20 70       	andi	r18, 0x00	; 0
    3278:	30 70       	andi	r19, 0x00	; 0
    327a:	0d a7       	lds	r16, 0x7d
    327c:	1e a7       	lds	r17, 0x7e
    327e:	2f a7       	lds	r18, 0x7f
    3280:	38 ab       	sts	0x58, r19
    3282:	69 a1       	lds	r22, 0x49
    3284:	7a a1       	lds	r23, 0x4a
    3286:	8b a1       	lds	r24, 0x4b
    3288:	9c a1       	lds	r25, 0x4c
    328a:	a5 01       	movw	r20, r10
    328c:	94 01       	movw	r18, r8
    328e:	0e 94 9e 20 	call	0x413c	; 0x413c <__udivmodsi4>
    3292:	29 8f       	std	Y+25, r18	; 0x19
    3294:	3a 8f       	std	Y+26, r19	; 0x1a
    3296:	4b 8f       	std	Y+27, r20	; 0x1b
    3298:	5c 8f       	std	Y+28, r21	; 0x1c
    329a:	6b 01       	movw	r12, r22
    329c:	7c 01       	movw	r14, r24
    329e:	69 a1       	lds	r22, 0x49
    32a0:	7a a1       	lds	r23, 0x4a
    32a2:	8b a1       	lds	r24, 0x4b
    32a4:	9c a1       	lds	r25, 0x4c
    32a6:	a5 01       	movw	r20, r10
    32a8:	94 01       	movw	r18, r8
    32aa:	0e 94 9e 20 	call	0x413c	; 0x413c <__udivmodsi4>
    32ae:	ca 01       	movw	r24, r20
    32b0:	b9 01       	movw	r22, r18
    32b2:	2d a5       	lds	r18, 0x6d
    32b4:	3e a5       	lds	r19, 0x6e
    32b6:	4f a5       	lds	r20, 0x6f
    32b8:	58 a9       	sts	0x48, r21
    32ba:	0e 94 7f 20 	call	0x40fe	; 0x40fe <__mulsi3>
    32be:	dc 01       	movw	r26, r24
    32c0:	cb 01       	movw	r24, r22
    32c2:	76 01       	movw	r14, r12
    32c4:	dd 24       	eor	r13, r13
    32c6:	cc 24       	eor	r12, r12
    32c8:	0d 8d       	ldd	r16, Y+29	; 0x1d
    32ca:	1e 8d       	ldd	r17, Y+30	; 0x1e
    32cc:	2f 8d       	ldd	r18, Y+31	; 0x1f
    32ce:	38 a1       	lds	r19, 0x48
    32d0:	a9 01       	movw	r20, r18
    32d2:	66 27       	eor	r22, r22
    32d4:	77 27       	eor	r23, r23
    32d6:	c4 2a       	or	r12, r20
    32d8:	d5 2a       	or	r13, r21
    32da:	e6 2a       	or	r14, r22
    32dc:	f7 2a       	or	r15, r23
    32de:	09 8d       	ldd	r16, Y+25	; 0x19
    32e0:	1a 8d       	ldd	r17, Y+26	; 0x1a
    32e2:	2b 8d       	ldd	r18, Y+27	; 0x1b
    32e4:	3c 8d       	ldd	r19, Y+28	; 0x1c
    32e6:	c8 16       	cp	r12, r24
    32e8:	d9 06       	cpc	r13, r25
    32ea:	ea 06       	cpc	r14, r26
    32ec:	fb 06       	cpc	r15, r27
    32ee:	38 f5       	brcc	.+78     	; 0x333e <__udivdi3+0xa06>
    32f0:	01 50       	subi	r16, 0x01	; 1
    32f2:	10 40       	sbci	r17, 0x00	; 0
    32f4:	20 40       	sbci	r18, 0x00	; 0
    32f6:	30 40       	sbci	r19, 0x00	; 0
    32f8:	09 a3       	lds	r16, 0x59
    32fa:	1a a3       	lds	r17, 0x5a
    32fc:	2b a3       	lds	r18, 0x5b
    32fe:	3c a3       	lds	r19, 0x5c
    3300:	c4 0c       	add	r12, r4
    3302:	d5 1c       	adc	r13, r5
    3304:	e6 1c       	adc	r14, r6
    3306:	f7 1c       	adc	r15, r7
    3308:	c4 14       	cp	r12, r4
    330a:	d5 04       	cpc	r13, r5
    330c:	e6 04       	cpc	r14, r6
    330e:	f7 04       	cpc	r15, r7
    3310:	d0 f0       	brcs	.+52     	; 0x3346 <__udivdi3+0xa0e>
    3312:	c8 16       	cp	r12, r24
    3314:	d9 06       	cpc	r13, r25
    3316:	ea 06       	cpc	r14, r26
    3318:	fb 06       	cpc	r15, r27
    331a:	a8 f4       	brcc	.+42     	; 0x3346 <__udivdi3+0xa0e>
    331c:	09 8d       	ldd	r16, Y+25	; 0x19
    331e:	1a 8d       	ldd	r17, Y+26	; 0x1a
    3320:	2b 8d       	ldd	r18, Y+27	; 0x1b
    3322:	3c 8d       	ldd	r19, Y+28	; 0x1c
    3324:	02 50       	subi	r16, 0x02	; 2
    3326:	10 40       	sbci	r17, 0x00	; 0
    3328:	20 40       	sbci	r18, 0x00	; 0
    332a:	30 40       	sbci	r19, 0x00	; 0
    332c:	09 a3       	lds	r16, 0x59
    332e:	1a a3       	lds	r17, 0x5a
    3330:	2b a3       	lds	r18, 0x5b
    3332:	3c a3       	lds	r19, 0x5c
    3334:	c4 0c       	add	r12, r4
    3336:	d5 1c       	adc	r13, r5
    3338:	e6 1c       	adc	r14, r6
    333a:	f7 1c       	adc	r15, r7
    333c:	04 c0       	rjmp	.+8      	; 0x3346 <__udivdi3+0xa0e>
    333e:	09 a3       	lds	r16, 0x59
    3340:	1a a3       	lds	r17, 0x5a
    3342:	2b a3       	lds	r18, 0x5b
    3344:	3c a3       	lds	r19, 0x5c
    3346:	c8 1a       	sub	r12, r24
    3348:	d9 0a       	sbc	r13, r25
    334a:	ea 0a       	sbc	r14, r26
    334c:	fb 0a       	sbc	r15, r27
    334e:	c7 01       	movw	r24, r14
    3350:	b6 01       	movw	r22, r12
    3352:	a5 01       	movw	r20, r10
    3354:	94 01       	movw	r18, r8
    3356:	0e 94 9e 20 	call	0x413c	; 0x413c <__udivmodsi4>
    335a:	29 8f       	std	Y+25, r18	; 0x19
    335c:	3a 8f       	std	Y+26, r19	; 0x1a
    335e:	4b 8f       	std	Y+27, r20	; 0x1b
    3360:	5c 8f       	std	Y+28, r21	; 0x1c
    3362:	69 ab       	sts	0x59, r22
    3364:	7a ab       	sts	0x5a, r23
    3366:	8b ab       	sts	0x5b, r24
    3368:	9c ab       	sts	0x5c, r25
    336a:	c7 01       	movw	r24, r14
    336c:	b6 01       	movw	r22, r12
    336e:	a5 01       	movw	r20, r10
    3370:	94 01       	movw	r18, r8
    3372:	0e 94 9e 20 	call	0x413c	; 0x413c <__udivmodsi4>
    3376:	ca 01       	movw	r24, r20
    3378:	b9 01       	movw	r22, r18
    337a:	2d a5       	lds	r18, 0x6d
    337c:	3e a5       	lds	r19, 0x6e
    337e:	4f a5       	lds	r20, 0x6f
    3380:	58 a9       	sts	0x48, r21
    3382:	0e 94 7f 20 	call	0x40fe	; 0x40fe <__mulsi3>
    3386:	4b 01       	movw	r8, r22
    3388:	5c 01       	movw	r10, r24
    338a:	49 a9       	sts	0x49, r20
    338c:	5a a9       	sts	0x4a, r21
    338e:	6b a9       	sts	0x4b, r22
    3390:	7c a9       	sts	0x4c, r23
    3392:	9a 01       	movw	r18, r20
    3394:	11 27       	eor	r17, r17
    3396:	00 27       	eor	r16, r16
    3398:	8d 8d       	ldd	r24, Y+29	; 0x1d
    339a:	9e 8d       	ldd	r25, Y+30	; 0x1e
    339c:	af 8d       	ldd	r26, Y+31	; 0x1f
    339e:	b8 a1       	lds	r27, 0x48
    33a0:	a0 70       	andi	r26, 0x00	; 0
    33a2:	b0 70       	andi	r27, 0x00	; 0
    33a4:	08 2b       	or	r16, r24
    33a6:	19 2b       	or	r17, r25
    33a8:	2a 2b       	or	r18, r26
    33aa:	3b 2b       	or	r19, r27
    33ac:	89 8d       	ldd	r24, Y+25	; 0x19
    33ae:	9a 8d       	ldd	r25, Y+26	; 0x1a
    33b0:	ab 8d       	ldd	r26, Y+27	; 0x1b
    33b2:	bc 8d       	ldd	r27, Y+28	; 0x1c
    33b4:	08 15       	cp	r16, r8
    33b6:	19 05       	cpc	r17, r9
    33b8:	2a 05       	cpc	r18, r10
    33ba:	3b 05       	cpc	r19, r11
    33bc:	e0 f4       	brcc	.+56     	; 0x33f6 <__udivdi3+0xabe>
    33be:	01 97       	sbiw	r24, 0x01	; 1
    33c0:	a1 09       	sbc	r26, r1
    33c2:	b1 09       	sbc	r27, r1
    33c4:	04 0d       	add	r16, r4
    33c6:	15 1d       	adc	r17, r5
    33c8:	26 1d       	adc	r18, r6
    33ca:	37 1d       	adc	r19, r7
    33cc:	04 15       	cp	r16, r4
    33ce:	15 05       	cpc	r17, r5
    33d0:	26 05       	cpc	r18, r6
    33d2:	37 05       	cpc	r19, r7
    33d4:	80 f0       	brcs	.+32     	; 0x33f6 <__udivdi3+0xabe>
    33d6:	08 15       	cp	r16, r8
    33d8:	19 05       	cpc	r17, r9
    33da:	2a 05       	cpc	r18, r10
    33dc:	3b 05       	cpc	r19, r11
    33de:	58 f4       	brcc	.+22     	; 0x33f6 <__udivdi3+0xabe>
    33e0:	89 8d       	ldd	r24, Y+25	; 0x19
    33e2:	9a 8d       	ldd	r25, Y+26	; 0x1a
    33e4:	ab 8d       	ldd	r26, Y+27	; 0x1b
    33e6:	bc 8d       	ldd	r27, Y+28	; 0x1c
    33e8:	02 97       	sbiw	r24, 0x02	; 2
    33ea:	a1 09       	sbc	r26, r1
    33ec:	b1 09       	sbc	r27, r1
    33ee:	04 0d       	add	r16, r4
    33f0:	15 1d       	adc	r17, r5
    33f2:	26 1d       	adc	r18, r6
    33f4:	37 1d       	adc	r19, r7
    33f6:	b9 01       	movw	r22, r18
    33f8:	a8 01       	movw	r20, r16
    33fa:	48 19       	sub	r20, r8
    33fc:	59 09       	sbc	r21, r9
    33fe:	6a 09       	sbc	r22, r10
    3400:	7b 09       	sbc	r23, r11
    3402:	4d 8f       	std	Y+29, r20	; 0x1d
    3404:	5e 8f       	std	Y+30, r21	; 0x1e
    3406:	6f 8f       	std	Y+31, r22	; 0x1f
    3408:	78 a3       	lds	r23, 0x58
    340a:	09 a1       	lds	r16, 0x49
    340c:	1a a1       	lds	r17, 0x4a
    340e:	2b a1       	lds	r18, 0x4b
    3410:	3c a1       	lds	r19, 0x4c
    3412:	78 01       	movw	r14, r16
    3414:	dd 24       	eor	r13, r13
    3416:	cc 24       	eor	r12, r12
    3418:	c8 2a       	or	r12, r24
    341a:	d9 2a       	or	r13, r25
    341c:	ea 2a       	or	r14, r26
    341e:	fb 2a       	or	r15, r27
    3420:	ff ef       	ldi	r31, 0xFF	; 255
    3422:	8f 2e       	mov	r8, r31
    3424:	ff ef       	ldi	r31, 0xFF	; 255
    3426:	9f 2e       	mov	r9, r31
    3428:	a1 2c       	mov	r10, r1
    342a:	b1 2c       	mov	r11, r1
    342c:	8c 20       	and	r8, r12
    342e:	9d 20       	and	r9, r13
    3430:	ae 20       	and	r10, r14
    3432:	bf 20       	and	r11, r15
    3434:	87 01       	movw	r16, r14
    3436:	22 27       	eor	r18, r18
    3438:	33 27       	eor	r19, r19
    343a:	09 8f       	std	Y+25, r16	; 0x19
    343c:	1a 8f       	std	Y+26, r17	; 0x1a
    343e:	2b 8f       	std	Y+27, r18	; 0x1b
    3440:	3c 8f       	std	Y+28, r19	; 0x1c
    3442:	49 a4       	lds	r20, 0xa9
    3444:	5a a4       	lds	r21, 0xaa
    3446:	6b a4       	lds	r22, 0xab
    3448:	7c a4       	lds	r23, 0xac
    344a:	2f ef       	ldi	r18, 0xFF	; 255
    344c:	3f ef       	ldi	r19, 0xFF	; 255
    344e:	40 e0       	ldi	r20, 0x00	; 0
    3450:	50 e0       	ldi	r21, 0x00	; 0
    3452:	42 22       	and	r4, r18
    3454:	53 22       	and	r5, r19
    3456:	64 22       	and	r6, r20
    3458:	75 22       	and	r7, r21
    345a:	29 a5       	lds	r18, 0x69
    345c:	3a a5       	lds	r19, 0x6a
    345e:	4b a5       	lds	r20, 0x6b
    3460:	5c a5       	lds	r21, 0x6c
    3462:	8a 01       	movw	r16, r20
    3464:	22 27       	eor	r18, r18
    3466:	33 27       	eor	r19, r19
    3468:	09 a3       	lds	r16, 0x59
    346a:	1a a3       	lds	r17, 0x5a
    346c:	2b a3       	lds	r18, 0x5b
    346e:	3c a3       	lds	r19, 0x5c
    3470:	c5 01       	movw	r24, r10
    3472:	b4 01       	movw	r22, r8
    3474:	a3 01       	movw	r20, r6
    3476:	92 01       	movw	r18, r4
    3478:	0e 94 7f 20 	call	0x40fe	; 0x40fe <__mulsi3>
    347c:	69 a7       	lds	r22, 0x79
    347e:	7a a7       	lds	r23, 0x7a
    3480:	8b a7       	lds	r24, 0x7b
    3482:	9c a7       	lds	r25, 0x7c
    3484:	c5 01       	movw	r24, r10
    3486:	b4 01       	movw	r22, r8
    3488:	29 a1       	lds	r18, 0x49
    348a:	3a a1       	lds	r19, 0x4a
    348c:	4b a1       	lds	r20, 0x4b
    348e:	5c a1       	lds	r21, 0x4c
    3490:	0e 94 7f 20 	call	0x40fe	; 0x40fe <__mulsi3>
    3494:	4b 01       	movw	r8, r22
    3496:	5c 01       	movw	r10, r24
    3498:	69 8d       	ldd	r22, Y+25	; 0x19
    349a:	7a 8d       	ldd	r23, Y+26	; 0x1a
    349c:	8b 8d       	ldd	r24, Y+27	; 0x1b
    349e:	9c 8d       	ldd	r25, Y+28	; 0x1c
    34a0:	a3 01       	movw	r20, r6
    34a2:	92 01       	movw	r18, r4
    34a4:	0e 94 7f 20 	call	0x40fe	; 0x40fe <__mulsi3>
    34a8:	2b 01       	movw	r4, r22
    34aa:	3c 01       	movw	r6, r24
    34ac:	69 8d       	ldd	r22, Y+25	; 0x19
    34ae:	7a 8d       	ldd	r23, Y+26	; 0x1a
    34b0:	8b 8d       	ldd	r24, Y+27	; 0x1b
    34b2:	9c 8d       	ldd	r25, Y+28	; 0x1c
    34b4:	29 a1       	lds	r18, 0x49
    34b6:	3a a1       	lds	r19, 0x4a
    34b8:	4b a1       	lds	r20, 0x4b
    34ba:	5c a1       	lds	r21, 0x4c
    34bc:	0e 94 7f 20 	call	0x40fe	; 0x40fe <__mulsi3>
    34c0:	ab 01       	movw	r20, r22
    34c2:	bc 01       	movw	r22, r24
    34c4:	84 0c       	add	r8, r4
    34c6:	95 1c       	adc	r9, r5
    34c8:	a6 1c       	adc	r10, r6
    34ca:	b7 1c       	adc	r11, r7
    34cc:	09 a5       	lds	r16, 0x69
    34ce:	1a a5       	lds	r17, 0x6a
    34d0:	2b a5       	lds	r18, 0x6b
    34d2:	3c a5       	lds	r19, 0x6c
    34d4:	c9 01       	movw	r24, r18
    34d6:	aa 27       	eor	r26, r26
    34d8:	bb 27       	eor	r27, r27
    34da:	88 0e       	add	r8, r24
    34dc:	99 1e       	adc	r9, r25
    34de:	aa 1e       	adc	r10, r26
    34e0:	bb 1e       	adc	r11, r27
    34e2:	84 14       	cp	r8, r4
    34e4:	95 04       	cpc	r9, r5
    34e6:	a6 04       	cpc	r10, r6
    34e8:	b7 04       	cpc	r11, r7
    34ea:	20 f4       	brcc	.+8      	; 0x34f4 <__udivdi3+0xbbc>
    34ec:	40 50       	subi	r20, 0x00	; 0
    34ee:	50 40       	sbci	r21, 0x00	; 0
    34f0:	6f 4f       	sbci	r22, 0xFF	; 255
    34f2:	7f 4f       	sbci	r23, 0xFF	; 255
    34f4:	c5 01       	movw	r24, r10
    34f6:	aa 27       	eor	r26, r26
    34f8:	bb 27       	eor	r27, r27
    34fa:	84 0f       	add	r24, r20
    34fc:	95 1f       	adc	r25, r21
    34fe:	a6 1f       	adc	r26, r22
    3500:	b7 1f       	adc	r27, r23
    3502:	0d 8d       	ldd	r16, Y+29	; 0x1d
    3504:	1e 8d       	ldd	r17, Y+30	; 0x1e
    3506:	2f 8d       	ldd	r18, Y+31	; 0x1f
    3508:	38 a1       	lds	r19, 0x48
    350a:	08 17       	cp	r16, r24
    350c:	19 07       	cpc	r17, r25
    350e:	2a 07       	cpc	r18, r26
    3510:	3b 07       	cpc	r19, r27
    3512:	18 f1       	brcs	.+70     	; 0x355a <__udivdi3+0xc22>
    3514:	80 17       	cp	r24, r16
    3516:	91 07       	cpc	r25, r17
    3518:	a2 07       	cpc	r26, r18
    351a:	b3 07       	cpc	r27, r19
    351c:	a1 f5       	brne	.+104    	; 0x3586 <__udivdi3+0xc4e>
    351e:	54 01       	movw	r10, r8
    3520:	99 24       	eor	r9, r9
    3522:	88 24       	eor	r8, r8
    3524:	89 a5       	lds	r24, 0x69
    3526:	9a a5       	lds	r25, 0x6a
    3528:	ab a5       	lds	r26, 0x6b
    352a:	bc a5       	lds	r27, 0x6c
    352c:	a0 70       	andi	r26, 0x00	; 0
    352e:	b0 70       	andi	r27, 0x00	; 0
    3530:	88 0e       	add	r8, r24
    3532:	99 1e       	adc	r9, r25
    3534:	aa 1e       	adc	r10, r26
    3536:	bb 1e       	adc	r11, r27
    3538:	4d a1       	lds	r20, 0x4d
    353a:	5e a1       	lds	r21, 0x4e
    353c:	6f a1       	lds	r22, 0x4f
    353e:	78 a5       	lds	r23, 0x68
    3540:	03 2c       	mov	r0, r3
    3542:	04 c0       	rjmp	.+8      	; 0x354c <__udivdi3+0xc14>
    3544:	44 0f       	add	r20, r20
    3546:	55 1f       	adc	r21, r21
    3548:	66 1f       	adc	r22, r22
    354a:	77 1f       	adc	r23, r23
    354c:	0a 94       	dec	r0
    354e:	d2 f7       	brpl	.-12     	; 0x3544 <__udivdi3+0xc0c>
    3550:	48 15       	cp	r20, r8
    3552:	59 05       	cpc	r21, r9
    3554:	6a 05       	cpc	r22, r10
    3556:	7b 05       	cpc	r23, r11
    3558:	b0 f4       	brcc	.+44     	; 0x3586 <__udivdi3+0xc4e>
    355a:	08 94       	sec
    355c:	c1 08       	sbc	r12, r1
    355e:	d1 08       	sbc	r13, r1
    3560:	e1 08       	sbc	r14, r1
    3562:	f1 08       	sbc	r15, r1
    3564:	10 c0       	rjmp	.+32     	; 0x3586 <__udivdi3+0xc4e>
    3566:	44 24       	eor	r4, r4
    3568:	55 24       	eor	r5, r5
    356a:	32 01       	movw	r6, r4
    356c:	cc 24       	eor	r12, r12
    356e:	dd 24       	eor	r13, r13
    3570:	76 01       	movw	r14, r12
    3572:	0c c0       	rjmp	.+24     	; 0x358c <__udivdi3+0xc54>
    3574:	44 24       	eor	r4, r4
    3576:	55 24       	eor	r5, r5
    3578:	32 01       	movw	r6, r4
    357a:	81 e0       	ldi	r24, 0x01	; 1
    357c:	c8 2e       	mov	r12, r24
    357e:	d1 2c       	mov	r13, r1
    3580:	e1 2c       	mov	r14, r1
    3582:	f1 2c       	mov	r15, r1
    3584:	03 c0       	rjmp	.+6      	; 0x358c <__udivdi3+0xc54>
    3586:	44 24       	eor	r4, r4
    3588:	55 24       	eor	r5, r5
    358a:	32 01       	movw	r6, r4
    358c:	fe 01       	movw	r30, r28
    358e:	31 96       	adiw	r30, 0x01	; 1
    3590:	88 e0       	ldi	r24, 0x08	; 8
    3592:	df 01       	movw	r26, r30
    3594:	1d 92       	st	X+, r1
    3596:	8a 95       	dec	r24
    3598:	e9 f7       	brne	.-6      	; 0x3594 <__udivdi3+0xc5c>
    359a:	c9 82       	std	Y+1, r12	; 0x01
    359c:	da 82       	std	Y+2, r13	; 0x02
    359e:	eb 82       	std	Y+3, r14	; 0x03
    35a0:	fc 82       	std	Y+4, r15	; 0x04
    35a2:	4d 82       	std	Y+5, r4	; 0x05
    35a4:	5e 82       	std	Y+6, r5	; 0x06
    35a6:	6f 82       	std	Y+7, r6	; 0x07
    35a8:	78 86       	std	Y+8, r7	; 0x08
    35aa:	2c 2d       	mov	r18, r12
    35ac:	3a 81       	ldd	r19, Y+2	; 0x02
    35ae:	4b 81       	ldd	r20, Y+3	; 0x03
    35b0:	5c 81       	ldd	r21, Y+4	; 0x04
    35b2:	64 2d       	mov	r22, r4
    35b4:	7e 81       	ldd	r23, Y+6	; 0x06
    35b6:	8f 81       	ldd	r24, Y+7	; 0x07
    35b8:	98 85       	ldd	r25, Y+8	; 0x08
    35ba:	e4 96       	adiw	r28, 0x34	; 52
    35bc:	e1 e1       	ldi	r30, 0x11	; 17
    35be:	0c 94 dd 20 	jmp	0x41ba	; 0x41ba <__epilogue_restores__+0x2>

000035c2 <__umoddi3>:
    35c2:	a4 e3       	ldi	r26, 0x34	; 52
    35c4:	b0 e0       	ldi	r27, 0x00	; 0
    35c6:	e7 ee       	ldi	r30, 0xE7	; 231
    35c8:	fa e1       	ldi	r31, 0x1A	; 26
    35ca:	0c 94 c0 20 	jmp	0x4180	; 0x4180 <__prologue_saves__>
    35ce:	f8 2f       	mov	r31, r24
    35d0:	e9 2f       	mov	r30, r25
    35d2:	a9 86       	std	Y+9, r10	; 0x09
    35d4:	ba 86       	std	Y+10, r11	; 0x0a
    35d6:	cb 86       	std	Y+11, r12	; 0x0b
    35d8:	dc 86       	std	Y+12, r13	; 0x0c
    35da:	ed 86       	std	Y+13, r14	; 0x0d
    35dc:	fe 86       	std	Y+14, r15	; 0x0e
    35de:	0f 87       	std	Y+15, r16	; 0x0f
    35e0:	18 8b       	std	Y+16, r17	; 0x10
    35e2:	89 84       	ldd	r8, Y+9	; 0x09
    35e4:	9a 84       	ldd	r9, Y+10	; 0x0a
    35e6:	ab 84       	ldd	r10, Y+11	; 0x0b
    35e8:	bc 84       	ldd	r11, Y+12	; 0x0c
    35ea:	8d 85       	ldd	r24, Y+13	; 0x0d
    35ec:	9e 85       	ldd	r25, Y+14	; 0x0e
    35ee:	af 85       	ldd	r26, Y+15	; 0x0f
    35f0:	b8 89       	ldd	r27, Y+16	; 0x10
    35f2:	29 8f       	std	Y+25, r18	; 0x19
    35f4:	3a 8f       	std	Y+26, r19	; 0x1a
    35f6:	4b 8f       	std	Y+27, r20	; 0x1b
    35f8:	5c 8f       	std	Y+28, r21	; 0x1c
    35fa:	6b 01       	movw	r12, r22
    35fc:	ef 2e       	mov	r14, r31
    35fe:	fe 2e       	mov	r15, r30
    3600:	00 97       	sbiw	r24, 0x00	; 0
    3602:	a1 05       	cpc	r26, r1
    3604:	b1 05       	cpc	r27, r1
    3606:	09 f0       	breq	.+2      	; 0x360a <__umoddi3+0x48>
    3608:	a2 c2       	rjmp	.+1348   	; 0x3b4e <__umoddi3+0x58c>
    360a:	c8 14       	cp	r12, r8
    360c:	d9 04       	cpc	r13, r9
    360e:	ea 04       	cpc	r14, r10
    3610:	fb 04       	cpc	r15, r11
    3612:	08 f0       	brcs	.+2      	; 0x3616 <__umoddi3+0x54>
    3614:	87 c0       	rjmp	.+270    	; 0x3724 <__umoddi3+0x162>
    3616:	00 e0       	ldi	r16, 0x00	; 0
    3618:	80 16       	cp	r8, r16
    361a:	00 e0       	ldi	r16, 0x00	; 0
    361c:	90 06       	cpc	r9, r16
    361e:	01 e0       	ldi	r16, 0x01	; 1
    3620:	a0 06       	cpc	r10, r16
    3622:	00 e0       	ldi	r16, 0x00	; 0
    3624:	b0 06       	cpc	r11, r16
    3626:	58 f4       	brcc	.+22     	; 0x363e <__umoddi3+0x7c>
    3628:	1f ef       	ldi	r17, 0xFF	; 255
    362a:	81 16       	cp	r8, r17
    362c:	91 04       	cpc	r9, r1
    362e:	a1 04       	cpc	r10, r1
    3630:	b1 04       	cpc	r11, r1
    3632:	09 f0       	breq	.+2      	; 0x3636 <__umoddi3+0x74>
    3634:	90 f4       	brcc	.+36     	; 0x365a <__umoddi3+0x98>
    3636:	80 e0       	ldi	r24, 0x00	; 0
    3638:	90 e0       	ldi	r25, 0x00	; 0
    363a:	dc 01       	movw	r26, r24
    363c:	17 c0       	rjmp	.+46     	; 0x366c <__umoddi3+0xaa>
    363e:	20 e0       	ldi	r18, 0x00	; 0
    3640:	82 16       	cp	r8, r18
    3642:	20 e0       	ldi	r18, 0x00	; 0
    3644:	92 06       	cpc	r9, r18
    3646:	20 e0       	ldi	r18, 0x00	; 0
    3648:	a2 06       	cpc	r10, r18
    364a:	21 e0       	ldi	r18, 0x01	; 1
    364c:	b2 06       	cpc	r11, r18
    364e:	50 f4       	brcc	.+20     	; 0x3664 <__umoddi3+0xa2>
    3650:	80 e1       	ldi	r24, 0x10	; 16
    3652:	90 e0       	ldi	r25, 0x00	; 0
    3654:	a0 e0       	ldi	r26, 0x00	; 0
    3656:	b0 e0       	ldi	r27, 0x00	; 0
    3658:	09 c0       	rjmp	.+18     	; 0x366c <__umoddi3+0xaa>
    365a:	88 e0       	ldi	r24, 0x08	; 8
    365c:	90 e0       	ldi	r25, 0x00	; 0
    365e:	a0 e0       	ldi	r26, 0x00	; 0
    3660:	b0 e0       	ldi	r27, 0x00	; 0
    3662:	04 c0       	rjmp	.+8      	; 0x366c <__umoddi3+0xaa>
    3664:	88 e1       	ldi	r24, 0x18	; 24
    3666:	90 e0       	ldi	r25, 0x00	; 0
    3668:	a0 e0       	ldi	r26, 0x00	; 0
    366a:	b0 e0       	ldi	r27, 0x00	; 0
    366c:	b5 01       	movw	r22, r10
    366e:	a4 01       	movw	r20, r8
    3670:	08 2e       	mov	r0, r24
    3672:	04 c0       	rjmp	.+8      	; 0x367c <__umoddi3+0xba>
    3674:	76 95       	lsr	r23
    3676:	67 95       	ror	r22
    3678:	57 95       	ror	r21
    367a:	47 95       	ror	r20
    367c:	0a 94       	dec	r0
    367e:	d2 f7       	brpl	.-12     	; 0x3674 <__umoddi3+0xb2>
    3680:	fa 01       	movw	r30, r20
    3682:	ee 56       	subi	r30, 0x6E	; 110
    3684:	ff 4f       	sbci	r31, 0xFF	; 255
    3686:	20 81       	ld	r18, Z
    3688:	40 e2       	ldi	r20, 0x20	; 32
    368a:	50 e0       	ldi	r21, 0x00	; 0
    368c:	60 e0       	ldi	r22, 0x00	; 0
    368e:	70 e0       	ldi	r23, 0x00	; 0
    3690:	48 1b       	sub	r20, r24
    3692:	59 0b       	sbc	r21, r25
    3694:	6a 0b       	sbc	r22, r26
    3696:	7b 0b       	sbc	r23, r27
    3698:	42 1b       	sub	r20, r18
    369a:	51 09       	sbc	r21, r1
    369c:	61 09       	sbc	r22, r1
    369e:	71 09       	sbc	r23, r1
    36a0:	4d 8f       	std	Y+29, r20	; 0x1d
    36a2:	5e 8f       	std	Y+30, r21	; 0x1e
    36a4:	6f 8f       	std	Y+31, r22	; 0x1f
    36a6:	78 a3       	lds	r23, 0x58
    36a8:	41 15       	cp	r20, r1
    36aa:	51 05       	cpc	r21, r1
    36ac:	61 05       	cpc	r22, r1
    36ae:	71 05       	cpc	r23, r1
    36b0:	09 f4       	brne	.+2      	; 0x36b4 <__umoddi3+0xf2>
    36b2:	85 c1       	rjmp	.+778    	; 0x39be <__umoddi3+0x3fc>
    36b4:	2d 8d       	ldd	r18, Y+29	; 0x1d
    36b6:	02 2e       	mov	r0, r18
    36b8:	04 c0       	rjmp	.+8      	; 0x36c2 <__umoddi3+0x100>
    36ba:	88 0c       	add	r8, r8
    36bc:	99 1c       	adc	r9, r9
    36be:	aa 1c       	adc	r10, r10
    36c0:	bb 1c       	adc	r11, r11
    36c2:	0a 94       	dec	r0
    36c4:	d2 f7       	brpl	.-12     	; 0x36ba <__umoddi3+0xf8>
    36c6:	b7 01       	movw	r22, r14
    36c8:	a6 01       	movw	r20, r12
    36ca:	02 2e       	mov	r0, r18
    36cc:	04 c0       	rjmp	.+8      	; 0x36d6 <__umoddi3+0x114>
    36ce:	44 0f       	add	r20, r20
    36d0:	55 1f       	adc	r21, r21
    36d2:	66 1f       	adc	r22, r22
    36d4:	77 1f       	adc	r23, r23
    36d6:	0a 94       	dec	r0
    36d8:	d2 f7       	brpl	.-12     	; 0x36ce <__umoddi3+0x10c>
    36da:	80 e2       	ldi	r24, 0x20	; 32
    36dc:	90 e0       	ldi	r25, 0x00	; 0
    36de:	ad 8d       	ldd	r26, Y+29	; 0x1d
    36e0:	be 8d       	ldd	r27, Y+30	; 0x1e
    36e2:	8a 1b       	sub	r24, r26
    36e4:	9b 0b       	sbc	r25, r27
    36e6:	c9 8c       	ldd	r12, Y+25	; 0x19
    36e8:	da 8c       	ldd	r13, Y+26	; 0x1a
    36ea:	eb 8c       	ldd	r14, Y+27	; 0x1b
    36ec:	fc 8c       	ldd	r15, Y+28	; 0x1c
    36ee:	04 c0       	rjmp	.+8      	; 0x36f8 <__umoddi3+0x136>
    36f0:	f6 94       	lsr	r15
    36f2:	e7 94       	ror	r14
    36f4:	d7 94       	ror	r13
    36f6:	c7 94       	ror	r12
    36f8:	8a 95       	dec	r24
    36fa:	d2 f7       	brpl	.-12     	; 0x36f0 <__umoddi3+0x12e>
    36fc:	c4 2a       	or	r12, r20
    36fe:	d5 2a       	or	r13, r21
    3700:	e6 2a       	or	r14, r22
    3702:	f7 2a       	or	r15, r23
    3704:	49 8d       	ldd	r20, Y+25	; 0x19
    3706:	5a 8d       	ldd	r21, Y+26	; 0x1a
    3708:	6b 8d       	ldd	r22, Y+27	; 0x1b
    370a:	7c 8d       	ldd	r23, Y+28	; 0x1c
    370c:	04 c0       	rjmp	.+8      	; 0x3716 <__umoddi3+0x154>
    370e:	44 0f       	add	r20, r20
    3710:	55 1f       	adc	r21, r21
    3712:	66 1f       	adc	r22, r22
    3714:	77 1f       	adc	r23, r23
    3716:	2a 95       	dec	r18
    3718:	d2 f7       	brpl	.-12     	; 0x370e <__umoddi3+0x14c>
    371a:	49 8f       	std	Y+25, r20	; 0x19
    371c:	5a 8f       	std	Y+26, r21	; 0x1a
    371e:	6b 8f       	std	Y+27, r22	; 0x1b
    3720:	7c 8f       	std	Y+28, r23	; 0x1c
    3722:	4d c1       	rjmp	.+666    	; 0x39be <__umoddi3+0x3fc>
    3724:	81 14       	cp	r8, r1
    3726:	91 04       	cpc	r9, r1
    3728:	a1 04       	cpc	r10, r1
    372a:	b1 04       	cpc	r11, r1
    372c:	51 f4       	brne	.+20     	; 0x3742 <__umoddi3+0x180>
    372e:	61 e0       	ldi	r22, 0x01	; 1
    3730:	70 e0       	ldi	r23, 0x00	; 0
    3732:	80 e0       	ldi	r24, 0x00	; 0
    3734:	90 e0       	ldi	r25, 0x00	; 0
    3736:	a5 01       	movw	r20, r10
    3738:	94 01       	movw	r18, r8
    373a:	0e 94 9e 20 	call	0x413c	; 0x413c <__udivmodsi4>
    373e:	49 01       	movw	r8, r18
    3740:	5a 01       	movw	r10, r20
    3742:	00 e0       	ldi	r16, 0x00	; 0
    3744:	80 16       	cp	r8, r16
    3746:	00 e0       	ldi	r16, 0x00	; 0
    3748:	90 06       	cpc	r9, r16
    374a:	01 e0       	ldi	r16, 0x01	; 1
    374c:	a0 06       	cpc	r10, r16
    374e:	00 e0       	ldi	r16, 0x00	; 0
    3750:	b0 06       	cpc	r11, r16
    3752:	58 f4       	brcc	.+22     	; 0x376a <__umoddi3+0x1a8>
    3754:	1f ef       	ldi	r17, 0xFF	; 255
    3756:	81 16       	cp	r8, r17
    3758:	91 04       	cpc	r9, r1
    375a:	a1 04       	cpc	r10, r1
    375c:	b1 04       	cpc	r11, r1
    375e:	09 f0       	breq	.+2      	; 0x3762 <__umoddi3+0x1a0>
    3760:	90 f4       	brcc	.+36     	; 0x3786 <__umoddi3+0x1c4>
    3762:	80 e0       	ldi	r24, 0x00	; 0
    3764:	90 e0       	ldi	r25, 0x00	; 0
    3766:	dc 01       	movw	r26, r24
    3768:	17 c0       	rjmp	.+46     	; 0x3798 <__umoddi3+0x1d6>
    376a:	20 e0       	ldi	r18, 0x00	; 0
    376c:	82 16       	cp	r8, r18
    376e:	20 e0       	ldi	r18, 0x00	; 0
    3770:	92 06       	cpc	r9, r18
    3772:	20 e0       	ldi	r18, 0x00	; 0
    3774:	a2 06       	cpc	r10, r18
    3776:	21 e0       	ldi	r18, 0x01	; 1
    3778:	b2 06       	cpc	r11, r18
    377a:	50 f4       	brcc	.+20     	; 0x3790 <__umoddi3+0x1ce>
    377c:	80 e1       	ldi	r24, 0x10	; 16
    377e:	90 e0       	ldi	r25, 0x00	; 0
    3780:	a0 e0       	ldi	r26, 0x00	; 0
    3782:	b0 e0       	ldi	r27, 0x00	; 0
    3784:	09 c0       	rjmp	.+18     	; 0x3798 <__umoddi3+0x1d6>
    3786:	88 e0       	ldi	r24, 0x08	; 8
    3788:	90 e0       	ldi	r25, 0x00	; 0
    378a:	a0 e0       	ldi	r26, 0x00	; 0
    378c:	b0 e0       	ldi	r27, 0x00	; 0
    378e:	04 c0       	rjmp	.+8      	; 0x3798 <__umoddi3+0x1d6>
    3790:	88 e1       	ldi	r24, 0x18	; 24
    3792:	90 e0       	ldi	r25, 0x00	; 0
    3794:	a0 e0       	ldi	r26, 0x00	; 0
    3796:	b0 e0       	ldi	r27, 0x00	; 0
    3798:	b5 01       	movw	r22, r10
    379a:	a4 01       	movw	r20, r8
    379c:	08 2e       	mov	r0, r24
    379e:	04 c0       	rjmp	.+8      	; 0x37a8 <__umoddi3+0x1e6>
    37a0:	76 95       	lsr	r23
    37a2:	67 95       	ror	r22
    37a4:	57 95       	ror	r21
    37a6:	47 95       	ror	r20
    37a8:	0a 94       	dec	r0
    37aa:	d2 f7       	brpl	.-12     	; 0x37a0 <__umoddi3+0x1de>
    37ac:	fa 01       	movw	r30, r20
    37ae:	ee 56       	subi	r30, 0x6E	; 110
    37b0:	ff 4f       	sbci	r31, 0xFF	; 255
    37b2:	20 81       	ld	r18, Z
    37b4:	82 0f       	add	r24, r18
    37b6:	91 1d       	adc	r25, r1
    37b8:	a1 1d       	adc	r26, r1
    37ba:	b1 1d       	adc	r27, r1
    37bc:	00 e2       	ldi	r16, 0x20	; 32
    37be:	10 e0       	ldi	r17, 0x00	; 0
    37c0:	20 e0       	ldi	r18, 0x00	; 0
    37c2:	30 e0       	ldi	r19, 0x00	; 0
    37c4:	08 1b       	sub	r16, r24
    37c6:	19 0b       	sbc	r17, r25
    37c8:	2a 0b       	sbc	r18, r26
    37ca:	3b 0b       	sbc	r19, r27
    37cc:	0d 8f       	std	Y+29, r16	; 0x1d
    37ce:	1e 8f       	std	Y+30, r17	; 0x1e
    37d0:	2f 8f       	std	Y+31, r18	; 0x1f
    37d2:	38 a3       	lds	r19, 0x58
    37d4:	01 15       	cp	r16, r1
    37d6:	11 05       	cpc	r17, r1
    37d8:	21 05       	cpc	r18, r1
    37da:	31 05       	cpc	r19, r1
    37dc:	29 f4       	brne	.+10     	; 0x37e8 <__umoddi3+0x226>
    37de:	c8 18       	sub	r12, r8
    37e0:	d9 08       	sbc	r13, r9
    37e2:	ea 08       	sbc	r14, r10
    37e4:	fb 08       	sbc	r15, r11
    37e6:	eb c0       	rjmp	.+470    	; 0x39be <__umoddi3+0x3fc>
    37e8:	2d 8d       	ldd	r18, Y+29	; 0x1d
    37ea:	02 2e       	mov	r0, r18
    37ec:	04 c0       	rjmp	.+8      	; 0x37f6 <__umoddi3+0x234>
    37ee:	88 0c       	add	r8, r8
    37f0:	99 1c       	adc	r9, r9
    37f2:	aa 1c       	adc	r10, r10
    37f4:	bb 1c       	adc	r11, r11
    37f6:	0a 94       	dec	r0
    37f8:	d2 f7       	brpl	.-12     	; 0x37ee <__umoddi3+0x22c>
    37fa:	b7 01       	movw	r22, r14
    37fc:	a6 01       	movw	r20, r12
    37fe:	08 2e       	mov	r0, r24
    3800:	04 c0       	rjmp	.+8      	; 0x380a <__umoddi3+0x248>
    3802:	76 95       	lsr	r23
    3804:	67 95       	ror	r22
    3806:	57 95       	ror	r21
    3808:	47 95       	ror	r20
    380a:	0a 94       	dec	r0
    380c:	d2 f7       	brpl	.-12     	; 0x3802 <__umoddi3+0x240>
    380e:	49 a7       	lds	r20, 0x79
    3810:	5a a7       	lds	r21, 0x7a
    3812:	6b a7       	lds	r22, 0x7b
    3814:	7c a7       	lds	r23, 0x7c
    3816:	b7 01       	movw	r22, r14
    3818:	a6 01       	movw	r20, r12
    381a:	02 2e       	mov	r0, r18
    381c:	04 c0       	rjmp	.+8      	; 0x3826 <__umoddi3+0x264>
    381e:	44 0f       	add	r20, r20
    3820:	55 1f       	adc	r21, r21
    3822:	66 1f       	adc	r22, r22
    3824:	77 1f       	adc	r23, r23
    3826:	0a 94       	dec	r0
    3828:	d2 f7       	brpl	.-12     	; 0x381e <__umoddi3+0x25c>
    382a:	c9 8c       	ldd	r12, Y+25	; 0x19
    382c:	da 8c       	ldd	r13, Y+26	; 0x1a
    382e:	eb 8c       	ldd	r14, Y+27	; 0x1b
    3830:	fc 8c       	ldd	r15, Y+28	; 0x1c
    3832:	04 c0       	rjmp	.+8      	; 0x383c <__umoddi3+0x27a>
    3834:	f6 94       	lsr	r15
    3836:	e7 94       	ror	r14
    3838:	d7 94       	ror	r13
    383a:	c7 94       	ror	r12
    383c:	8a 95       	dec	r24
    383e:	d2 f7       	brpl	.-12     	; 0x3834 <__umoddi3+0x272>
    3840:	4c 29       	or	r20, r12
    3842:	5d 29       	or	r21, r13
    3844:	6e 29       	or	r22, r14
    3846:	7f 29       	or	r23, r15
    3848:	49 a3       	lds	r20, 0x59
    384a:	5a a3       	lds	r21, 0x5a
    384c:	6b a3       	lds	r22, 0x5b
    384e:	7c a3       	lds	r23, 0x5c
    3850:	e9 8c       	ldd	r14, Y+25	; 0x19
    3852:	fa 8c       	ldd	r15, Y+26	; 0x1a
    3854:	0b 8d       	ldd	r16, Y+27	; 0x1b
    3856:	1c 8d       	ldd	r17, Y+28	; 0x1c
    3858:	04 c0       	rjmp	.+8      	; 0x3862 <__umoddi3+0x2a0>
    385a:	ee 0c       	add	r14, r14
    385c:	ff 1c       	adc	r15, r15
    385e:	00 1f       	adc	r16, r16
    3860:	11 1f       	adc	r17, r17
    3862:	2a 95       	dec	r18
    3864:	d2 f7       	brpl	.-12     	; 0x385a <__umoddi3+0x298>
    3866:	e9 8e       	std	Y+25, r14	; 0x19
    3868:	fa 8e       	std	Y+26, r15	; 0x1a
    386a:	0b 8f       	std	Y+27, r16	; 0x1b
    386c:	1c 8f       	std	Y+28, r17	; 0x1c
    386e:	25 01       	movw	r4, r10
    3870:	66 24       	eor	r6, r6
    3872:	77 24       	eor	r7, r7
    3874:	95 01       	movw	r18, r10
    3876:	84 01       	movw	r16, r8
    3878:	20 70       	andi	r18, 0x00	; 0
    387a:	30 70       	andi	r19, 0x00	; 0
    387c:	0d a3       	lds	r16, 0x5d
    387e:	1e a3       	lds	r17, 0x5e
    3880:	2f a3       	lds	r18, 0x5f
    3882:	38 a7       	lds	r19, 0x78
    3884:	69 a5       	lds	r22, 0x69
    3886:	7a a5       	lds	r23, 0x6a
    3888:	8b a5       	lds	r24, 0x6b
    388a:	9c a5       	lds	r25, 0x6c
    388c:	a3 01       	movw	r20, r6
    388e:	92 01       	movw	r18, r4
    3890:	0e 94 9e 20 	call	0x413c	; 0x413c <__udivmodsi4>
    3894:	02 2f       	mov	r16, r18
    3896:	c3 2e       	mov	r12, r19
    3898:	14 2f       	mov	r17, r20
    389a:	f5 2e       	mov	r15, r21
    389c:	6d a7       	lds	r22, 0x7d
    389e:	7e a7       	lds	r23, 0x7e
    38a0:	8f a7       	lds	r24, 0x7f
    38a2:	98 ab       	sts	0x58, r25
    38a4:	69 a5       	lds	r22, 0x69
    38a6:	7a a5       	lds	r23, 0x6a
    38a8:	8b a5       	lds	r24, 0x6b
    38aa:	9c a5       	lds	r25, 0x6c
    38ac:	a3 01       	movw	r20, r6
    38ae:	92 01       	movw	r18, r4
    38b0:	0e 94 9e 20 	call	0x413c	; 0x413c <__udivmodsi4>
    38b4:	60 2f       	mov	r22, r16
    38b6:	7c 2d       	mov	r23, r12
    38b8:	81 2f       	mov	r24, r17
    38ba:	9f 2d       	mov	r25, r15
    38bc:	2d a1       	lds	r18, 0x4d
    38be:	3e a1       	lds	r19, 0x4e
    38c0:	4f a1       	lds	r20, 0x4f
    38c2:	58 a5       	lds	r21, 0x68
    38c4:	0e 94 7f 20 	call	0x40fe	; 0x40fe <__mulsi3>
    38c8:	dc 01       	movw	r26, r24
    38ca:	cb 01       	movw	r24, r22
    38cc:	0d a5       	lds	r16, 0x6d
    38ce:	1e a5       	lds	r17, 0x6e
    38d0:	2f a5       	lds	r18, 0x6f
    38d2:	38 a9       	sts	0x48, r19
    38d4:	78 01       	movw	r14, r16
    38d6:	dd 24       	eor	r13, r13
    38d8:	cc 24       	eor	r12, r12
    38da:	09 a1       	lds	r16, 0x49
    38dc:	1a a1       	lds	r17, 0x4a
    38de:	2b a1       	lds	r18, 0x4b
    38e0:	3c a1       	lds	r19, 0x4c
    38e2:	a9 01       	movw	r20, r18
    38e4:	66 27       	eor	r22, r22
    38e6:	77 27       	eor	r23, r23
    38e8:	c4 2a       	or	r12, r20
    38ea:	d5 2a       	or	r13, r21
    38ec:	e6 2a       	or	r14, r22
    38ee:	f7 2a       	or	r15, r23
    38f0:	c8 16       	cp	r12, r24
    38f2:	d9 06       	cpc	r13, r25
    38f4:	ea 06       	cpc	r14, r26
    38f6:	fb 06       	cpc	r15, r27
    38f8:	90 f4       	brcc	.+36     	; 0x391e <__umoddi3+0x35c>
    38fa:	c8 0c       	add	r12, r8
    38fc:	d9 1c       	adc	r13, r9
    38fe:	ea 1c       	adc	r14, r10
    3900:	fb 1c       	adc	r15, r11
    3902:	c8 14       	cp	r12, r8
    3904:	d9 04       	cpc	r13, r9
    3906:	ea 04       	cpc	r14, r10
    3908:	fb 04       	cpc	r15, r11
    390a:	48 f0       	brcs	.+18     	; 0x391e <__umoddi3+0x35c>
    390c:	c8 16       	cp	r12, r24
    390e:	d9 06       	cpc	r13, r25
    3910:	ea 06       	cpc	r14, r26
    3912:	fb 06       	cpc	r15, r27
    3914:	20 f4       	brcc	.+8      	; 0x391e <__umoddi3+0x35c>
    3916:	c8 0c       	add	r12, r8
    3918:	d9 1c       	adc	r13, r9
    391a:	ea 1c       	adc	r14, r10
    391c:	fb 1c       	adc	r15, r11
    391e:	c8 1a       	sub	r12, r24
    3920:	d9 0a       	sbc	r13, r25
    3922:	ea 0a       	sbc	r14, r26
    3924:	fb 0a       	sbc	r15, r27
    3926:	c7 01       	movw	r24, r14
    3928:	b6 01       	movw	r22, r12
    392a:	a3 01       	movw	r20, r6
    392c:	92 01       	movw	r18, r4
    392e:	0e 94 9e 20 	call	0x413c	; 0x413c <__udivmodsi4>
    3932:	12 2f       	mov	r17, r18
    3934:	03 2f       	mov	r16, r19
    3936:	34 2e       	mov	r3, r20
    3938:	25 2e       	mov	r2, r21
    393a:	69 a7       	lds	r22, 0x79
    393c:	7a a7       	lds	r23, 0x7a
    393e:	8b a7       	lds	r24, 0x7b
    3940:	9c a7       	lds	r25, 0x7c
    3942:	c7 01       	movw	r24, r14
    3944:	b6 01       	movw	r22, r12
    3946:	a3 01       	movw	r20, r6
    3948:	92 01       	movw	r18, r4
    394a:	0e 94 9e 20 	call	0x413c	; 0x413c <__udivmodsi4>
    394e:	61 2f       	mov	r22, r17
    3950:	70 2f       	mov	r23, r16
    3952:	83 2d       	mov	r24, r3
    3954:	92 2d       	mov	r25, r2
    3956:	2d a1       	lds	r18, 0x4d
    3958:	3e a1       	lds	r19, 0x4e
    395a:	4f a1       	lds	r20, 0x4f
    395c:	58 a5       	lds	r21, 0x68
    395e:	0e 94 7f 20 	call	0x40fe	; 0x40fe <__mulsi3>
    3962:	dc 01       	movw	r26, r24
    3964:	cb 01       	movw	r24, r22
    3966:	09 a5       	lds	r16, 0x69
    3968:	1a a5       	lds	r17, 0x6a
    396a:	2b a5       	lds	r18, 0x6b
    396c:	3c a5       	lds	r19, 0x6c
    396e:	78 01       	movw	r14, r16
    3970:	dd 24       	eor	r13, r13
    3972:	cc 24       	eor	r12, r12
    3974:	49 a1       	lds	r20, 0x49
    3976:	5a a1       	lds	r21, 0x4a
    3978:	6b a1       	lds	r22, 0x4b
    397a:	7c a1       	lds	r23, 0x4c
    397c:	60 70       	andi	r22, 0x00	; 0
    397e:	70 70       	andi	r23, 0x00	; 0
    3980:	c4 2a       	or	r12, r20
    3982:	d5 2a       	or	r13, r21
    3984:	e6 2a       	or	r14, r22
    3986:	f7 2a       	or	r15, r23
    3988:	c8 16       	cp	r12, r24
    398a:	d9 06       	cpc	r13, r25
    398c:	ea 06       	cpc	r14, r26
    398e:	fb 06       	cpc	r15, r27
    3990:	90 f4       	brcc	.+36     	; 0x39b6 <__umoddi3+0x3f4>
    3992:	c8 0c       	add	r12, r8
    3994:	d9 1c       	adc	r13, r9
    3996:	ea 1c       	adc	r14, r10
    3998:	fb 1c       	adc	r15, r11
    399a:	c8 14       	cp	r12, r8
    399c:	d9 04       	cpc	r13, r9
    399e:	ea 04       	cpc	r14, r10
    39a0:	fb 04       	cpc	r15, r11
    39a2:	48 f0       	brcs	.+18     	; 0x39b6 <__umoddi3+0x3f4>
    39a4:	c8 16       	cp	r12, r24
    39a6:	d9 06       	cpc	r13, r25
    39a8:	ea 06       	cpc	r14, r26
    39aa:	fb 06       	cpc	r15, r27
    39ac:	20 f4       	brcc	.+8      	; 0x39b6 <__umoddi3+0x3f4>
    39ae:	c8 0c       	add	r12, r8
    39b0:	d9 1c       	adc	r13, r9
    39b2:	ea 1c       	adc	r14, r10
    39b4:	fb 1c       	adc	r15, r11
    39b6:	c8 1a       	sub	r12, r24
    39b8:	d9 0a       	sbc	r13, r25
    39ba:	ea 0a       	sbc	r14, r26
    39bc:	fb 0a       	sbc	r15, r27
    39be:	85 01       	movw	r16, r10
    39c0:	22 27       	eor	r18, r18
    39c2:	33 27       	eor	r19, r19
    39c4:	09 a3       	lds	r16, 0x59
    39c6:	1a a3       	lds	r17, 0x5a
    39c8:	2b a3       	lds	r18, 0x5b
    39ca:	3c a3       	lds	r19, 0x5c
    39cc:	95 01       	movw	r18, r10
    39ce:	84 01       	movw	r16, r8
    39d0:	20 70       	andi	r18, 0x00	; 0
    39d2:	30 70       	andi	r19, 0x00	; 0
    39d4:	09 a7       	lds	r16, 0x79
    39d6:	1a a7       	lds	r17, 0x7a
    39d8:	2b a7       	lds	r18, 0x7b
    39da:	3c a7       	lds	r19, 0x7c
    39dc:	c7 01       	movw	r24, r14
    39de:	b6 01       	movw	r22, r12
    39e0:	29 a1       	lds	r18, 0x49
    39e2:	3a a1       	lds	r19, 0x4a
    39e4:	4b a1       	lds	r20, 0x4b
    39e6:	5c a1       	lds	r21, 0x4c
    39e8:	0e 94 9e 20 	call	0x413c	; 0x413c <__udivmodsi4>
    39ec:	12 2f       	mov	r17, r18
    39ee:	03 2f       	mov	r16, r19
    39f0:	44 2e       	mov	r4, r20
    39f2:	75 2e       	mov	r7, r21
    39f4:	6d a3       	lds	r22, 0x5d
    39f6:	7e a3       	lds	r23, 0x5e
    39f8:	8f a3       	lds	r24, 0x5f
    39fa:	98 a7       	lds	r25, 0x78
    39fc:	c7 01       	movw	r24, r14
    39fe:	b6 01       	movw	r22, r12
    3a00:	29 a1       	lds	r18, 0x49
    3a02:	3a a1       	lds	r19, 0x4a
    3a04:	4b a1       	lds	r20, 0x4b
    3a06:	5c a1       	lds	r21, 0x4c
    3a08:	0e 94 9e 20 	call	0x413c	; 0x413c <__udivmodsi4>
    3a0c:	61 2f       	mov	r22, r17
    3a0e:	70 2f       	mov	r23, r16
    3a10:	84 2d       	mov	r24, r4
    3a12:	97 2d       	mov	r25, r7
    3a14:	29 a5       	lds	r18, 0x69
    3a16:	3a a5       	lds	r19, 0x6a
    3a18:	4b a5       	lds	r20, 0x6b
    3a1a:	5c a5       	lds	r21, 0x6c
    3a1c:	0e 94 7f 20 	call	0x40fe	; 0x40fe <__mulsi3>
    3a20:	dc 01       	movw	r26, r24
    3a22:	cb 01       	movw	r24, r22
    3a24:	0d a1       	lds	r16, 0x4d
    3a26:	1e a1       	lds	r17, 0x4e
    3a28:	2f a1       	lds	r18, 0x4f
    3a2a:	38 a5       	lds	r19, 0x68
    3a2c:	78 01       	movw	r14, r16
    3a2e:	dd 24       	eor	r13, r13
    3a30:	cc 24       	eor	r12, r12
    3a32:	09 8d       	ldd	r16, Y+25	; 0x19
    3a34:	1a 8d       	ldd	r17, Y+26	; 0x1a
    3a36:	2b 8d       	ldd	r18, Y+27	; 0x1b
    3a38:	3c 8d       	ldd	r19, Y+28	; 0x1c
    3a3a:	a9 01       	movw	r20, r18
    3a3c:	66 27       	eor	r22, r22
    3a3e:	77 27       	eor	r23, r23
    3a40:	c4 2a       	or	r12, r20
    3a42:	d5 2a       	or	r13, r21
    3a44:	e6 2a       	or	r14, r22
    3a46:	f7 2a       	or	r15, r23
    3a48:	c8 16       	cp	r12, r24
    3a4a:	d9 06       	cpc	r13, r25
    3a4c:	ea 06       	cpc	r14, r26
    3a4e:	fb 06       	cpc	r15, r27
    3a50:	90 f4       	brcc	.+36     	; 0x3a76 <__umoddi3+0x4b4>
    3a52:	c8 0c       	add	r12, r8
    3a54:	d9 1c       	adc	r13, r9
    3a56:	ea 1c       	adc	r14, r10
    3a58:	fb 1c       	adc	r15, r11
    3a5a:	c8 14       	cp	r12, r8
    3a5c:	d9 04       	cpc	r13, r9
    3a5e:	ea 04       	cpc	r14, r10
    3a60:	fb 04       	cpc	r15, r11
    3a62:	48 f0       	brcs	.+18     	; 0x3a76 <__umoddi3+0x4b4>
    3a64:	c8 16       	cp	r12, r24
    3a66:	d9 06       	cpc	r13, r25
    3a68:	ea 06       	cpc	r14, r26
    3a6a:	fb 06       	cpc	r15, r27
    3a6c:	20 f4       	brcc	.+8      	; 0x3a76 <__umoddi3+0x4b4>
    3a6e:	c8 0c       	add	r12, r8
    3a70:	d9 1c       	adc	r13, r9
    3a72:	ea 1c       	adc	r14, r10
    3a74:	fb 1c       	adc	r15, r11
    3a76:	c8 1a       	sub	r12, r24
    3a78:	d9 0a       	sbc	r13, r25
    3a7a:	ea 0a       	sbc	r14, r26
    3a7c:	fb 0a       	sbc	r15, r27
    3a7e:	c7 01       	movw	r24, r14
    3a80:	b6 01       	movw	r22, r12
    3a82:	29 a1       	lds	r18, 0x49
    3a84:	3a a1       	lds	r19, 0x4a
    3a86:	4b a1       	lds	r20, 0x4b
    3a88:	5c a1       	lds	r21, 0x4c
    3a8a:	0e 94 9e 20 	call	0x413c	; 0x413c <__udivmodsi4>
    3a8e:	12 2f       	mov	r17, r18
    3a90:	03 2f       	mov	r16, r19
    3a92:	44 2e       	mov	r4, r20
    3a94:	75 2e       	mov	r7, r21
    3a96:	6d a3       	lds	r22, 0x5d
    3a98:	7e a3       	lds	r23, 0x5e
    3a9a:	8f a3       	lds	r24, 0x5f
    3a9c:	98 a7       	lds	r25, 0x78
    3a9e:	c7 01       	movw	r24, r14
    3aa0:	b6 01       	movw	r22, r12
    3aa2:	29 a1       	lds	r18, 0x49
    3aa4:	3a a1       	lds	r19, 0x4a
    3aa6:	4b a1       	lds	r20, 0x4b
    3aa8:	5c a1       	lds	r21, 0x4c
    3aaa:	0e 94 9e 20 	call	0x413c	; 0x413c <__udivmodsi4>
    3aae:	61 2f       	mov	r22, r17
    3ab0:	70 2f       	mov	r23, r16
    3ab2:	84 2d       	mov	r24, r4
    3ab4:	97 2d       	mov	r25, r7
    3ab6:	29 a5       	lds	r18, 0x69
    3ab8:	3a a5       	lds	r19, 0x6a
    3aba:	4b a5       	lds	r20, 0x6b
    3abc:	5c a5       	lds	r21, 0x6c
    3abe:	0e 94 7f 20 	call	0x40fe	; 0x40fe <__mulsi3>
    3ac2:	ab 01       	movw	r20, r22
    3ac4:	bc 01       	movw	r22, r24
    3ac6:	cd a0       	lds	r28, 0x8d
    3ac8:	de a0       	lds	r29, 0x8e
    3aca:	ef a0       	lds	r30, 0x8f
    3acc:	f8 a4       	lds	r31, 0xa8
    3ace:	d6 01       	movw	r26, r12
    3ad0:	99 27       	eor	r25, r25
    3ad2:	88 27       	eor	r24, r24
    3ad4:	09 8d       	ldd	r16, Y+25	; 0x19
    3ad6:	1a 8d       	ldd	r17, Y+26	; 0x1a
    3ad8:	2b 8d       	ldd	r18, Y+27	; 0x1b
    3ada:	3c 8d       	ldd	r19, Y+28	; 0x1c
    3adc:	20 70       	andi	r18, 0x00	; 0
    3ade:	30 70       	andi	r19, 0x00	; 0
    3ae0:	80 2b       	or	r24, r16
    3ae2:	91 2b       	or	r25, r17
    3ae4:	a2 2b       	or	r26, r18
    3ae6:	b3 2b       	or	r27, r19
    3ae8:	84 17       	cp	r24, r20
    3aea:	95 07       	cpc	r25, r21
    3aec:	a6 07       	cpc	r26, r22
    3aee:	b7 07       	cpc	r27, r23
    3af0:	90 f4       	brcc	.+36     	; 0x3b16 <__umoddi3+0x554>
    3af2:	88 0d       	add	r24, r8
    3af4:	99 1d       	adc	r25, r9
    3af6:	aa 1d       	adc	r26, r10
    3af8:	bb 1d       	adc	r27, r11
    3afa:	88 15       	cp	r24, r8
    3afc:	99 05       	cpc	r25, r9
    3afe:	aa 05       	cpc	r26, r10
    3b00:	bb 05       	cpc	r27, r11
    3b02:	48 f0       	brcs	.+18     	; 0x3b16 <__umoddi3+0x554>
    3b04:	84 17       	cp	r24, r20
    3b06:	95 07       	cpc	r25, r21
    3b08:	a6 07       	cpc	r26, r22
    3b0a:	b7 07       	cpc	r27, r23
    3b0c:	20 f4       	brcc	.+8      	; 0x3b16 <__umoddi3+0x554>
    3b0e:	88 0d       	add	r24, r8
    3b10:	99 1d       	adc	r25, r9
    3b12:	aa 1d       	adc	r26, r10
    3b14:	bb 1d       	adc	r27, r11
    3b16:	84 1b       	sub	r24, r20
    3b18:	95 0b       	sbc	r25, r21
    3b1a:	a6 0b       	sbc	r26, r22
    3b1c:	b7 0b       	sbc	r27, r23
    3b1e:	8c 01       	movw	r16, r24
    3b20:	9d 01       	movw	r18, r26
    3b22:	0d 8c       	ldd	r0, Y+29	; 0x1d
    3b24:	04 c0       	rjmp	.+8      	; 0x3b2e <__umoddi3+0x56c>
    3b26:	36 95       	lsr	r19
    3b28:	27 95       	ror	r18
    3b2a:	17 95       	ror	r17
    3b2c:	07 95       	ror	r16
    3b2e:	0a 94       	dec	r0
    3b30:	d2 f7       	brpl	.-12     	; 0x3b26 <__umoddi3+0x564>
    3b32:	09 83       	std	Y+1, r16	; 0x01
    3b34:	1a 83       	std	Y+2, r17	; 0x02
    3b36:	2b 83       	std	Y+3, r18	; 0x03
    3b38:	3c 83       	std	Y+4, r19	; 0x04
    3b3a:	1d 82       	std	Y+5, r1	; 0x05
    3b3c:	1e 82       	std	Y+6, r1	; 0x06
    3b3e:	1f 82       	std	Y+7, r1	; 0x07
    3b40:	18 86       	std	Y+8, r1	; 0x08
    3b42:	20 2f       	mov	r18, r16
    3b44:	3a 81       	ldd	r19, Y+2	; 0x02
    3b46:	4b 81       	ldd	r20, Y+3	; 0x03
    3b48:	5c 81       	ldd	r21, Y+4	; 0x04
    3b4a:	60 e0       	ldi	r22, 0x00	; 0
    3b4c:	d1 c2       	rjmp	.+1442   	; 0x40f0 <__umoddi3+0xb2e>
    3b4e:	c8 16       	cp	r12, r24
    3b50:	d9 06       	cpc	r13, r25
    3b52:	ea 06       	cpc	r14, r26
    3b54:	fb 06       	cpc	r15, r27
    3b56:	18 f4       	brcc	.+6      	; 0x3b5e <__umoddi3+0x59c>
    3b58:	8f 2f       	mov	r24, r31
    3b5a:	9e 2f       	mov	r25, r30
    3b5c:	cc c2       	rjmp	.+1432   	; 0x40f6 <__umoddi3+0xb34>
    3b5e:	80 30       	cpi	r24, 0x00	; 0
    3b60:	00 e0       	ldi	r16, 0x00	; 0
    3b62:	90 07       	cpc	r25, r16
    3b64:	01 e0       	ldi	r16, 0x01	; 1
    3b66:	a0 07       	cpc	r26, r16
    3b68:	00 e0       	ldi	r16, 0x00	; 0
    3b6a:	b0 07       	cpc	r27, r16
    3b6c:	50 f4       	brcc	.+20     	; 0x3b82 <__umoddi3+0x5c0>
    3b6e:	8f 3f       	cpi	r24, 0xFF	; 255
    3b70:	91 05       	cpc	r25, r1
    3b72:	a1 05       	cpc	r26, r1
    3b74:	b1 05       	cpc	r27, r1
    3b76:	09 f0       	breq	.+2      	; 0x3b7a <__umoddi3+0x5b8>
    3b78:	88 f4       	brcc	.+34     	; 0x3b9c <__umoddi3+0x5da>
    3b7a:	00 e0       	ldi	r16, 0x00	; 0
    3b7c:	10 e0       	ldi	r17, 0x00	; 0
    3b7e:	98 01       	movw	r18, r16
    3b80:	16 c0       	rjmp	.+44     	; 0x3bae <__umoddi3+0x5ec>
    3b82:	80 30       	cpi	r24, 0x00	; 0
    3b84:	10 e0       	ldi	r17, 0x00	; 0
    3b86:	91 07       	cpc	r25, r17
    3b88:	10 e0       	ldi	r17, 0x00	; 0
    3b8a:	a1 07       	cpc	r26, r17
    3b8c:	11 e0       	ldi	r17, 0x01	; 1
    3b8e:	b1 07       	cpc	r27, r17
    3b90:	50 f4       	brcc	.+20     	; 0x3ba6 <__umoddi3+0x5e4>
    3b92:	00 e1       	ldi	r16, 0x10	; 16
    3b94:	10 e0       	ldi	r17, 0x00	; 0
    3b96:	20 e0       	ldi	r18, 0x00	; 0
    3b98:	30 e0       	ldi	r19, 0x00	; 0
    3b9a:	09 c0       	rjmp	.+18     	; 0x3bae <__umoddi3+0x5ec>
    3b9c:	08 e0       	ldi	r16, 0x08	; 8
    3b9e:	10 e0       	ldi	r17, 0x00	; 0
    3ba0:	20 e0       	ldi	r18, 0x00	; 0
    3ba2:	30 e0       	ldi	r19, 0x00	; 0
    3ba4:	04 c0       	rjmp	.+8      	; 0x3bae <__umoddi3+0x5ec>
    3ba6:	08 e1       	ldi	r16, 0x18	; 24
    3ba8:	10 e0       	ldi	r17, 0x00	; 0
    3baa:	20 e0       	ldi	r18, 0x00	; 0
    3bac:	30 e0       	ldi	r19, 0x00	; 0
    3bae:	ac 01       	movw	r20, r24
    3bb0:	bd 01       	movw	r22, r26
    3bb2:	00 2e       	mov	r0, r16
    3bb4:	04 c0       	rjmp	.+8      	; 0x3bbe <__umoddi3+0x5fc>
    3bb6:	76 95       	lsr	r23
    3bb8:	67 95       	ror	r22
    3bba:	57 95       	ror	r21
    3bbc:	47 95       	ror	r20
    3bbe:	0a 94       	dec	r0
    3bc0:	d2 f7       	brpl	.-12     	; 0x3bb6 <__umoddi3+0x5f4>
    3bc2:	fa 01       	movw	r30, r20
    3bc4:	ee 56       	subi	r30, 0x6E	; 110
    3bc6:	ff 4f       	sbci	r31, 0xFF	; 255
    3bc8:	40 81       	ld	r20, Z
    3bca:	04 0f       	add	r16, r20
    3bcc:	11 1d       	adc	r17, r1
    3bce:	21 1d       	adc	r18, r1
    3bd0:	31 1d       	adc	r19, r1
    3bd2:	40 e2       	ldi	r20, 0x20	; 32
    3bd4:	50 e0       	ldi	r21, 0x00	; 0
    3bd6:	60 e0       	ldi	r22, 0x00	; 0
    3bd8:	70 e0       	ldi	r23, 0x00	; 0
    3bda:	40 1b       	sub	r20, r16
    3bdc:	51 0b       	sbc	r21, r17
    3bde:	62 0b       	sbc	r22, r18
    3be0:	73 0b       	sbc	r23, r19
    3be2:	09 f0       	breq	.+2      	; 0x3be6 <__umoddi3+0x624>
    3be4:	40 c0       	rjmp	.+128    	; 0x3c66 <__umoddi3+0x6a4>
    3be6:	8c 15       	cp	r24, r12
    3be8:	9d 05       	cpc	r25, r13
    3bea:	ae 05       	cpc	r26, r14
    3bec:	bf 05       	cpc	r27, r15
    3bee:	48 f0       	brcs	.+18     	; 0x3c02 <__umoddi3+0x640>
    3bf0:	09 8d       	ldd	r16, Y+25	; 0x19
    3bf2:	1a 8d       	ldd	r17, Y+26	; 0x1a
    3bf4:	2b 8d       	ldd	r18, Y+27	; 0x1b
    3bf6:	3c 8d       	ldd	r19, Y+28	; 0x1c
    3bf8:	08 15       	cp	r16, r8
    3bfa:	19 05       	cpc	r17, r9
    3bfc:	2a 05       	cpc	r18, r10
    3bfe:	3b 05       	cpc	r19, r11
    3c00:	20 f1       	brcs	.+72     	; 0x3c4a <__umoddi3+0x688>
    3c02:	49 8d       	ldd	r20, Y+25	; 0x19
    3c04:	5a 8d       	ldd	r21, Y+26	; 0x1a
    3c06:	6b 8d       	ldd	r22, Y+27	; 0x1b
    3c08:	7c 8d       	ldd	r23, Y+28	; 0x1c
    3c0a:	48 19       	sub	r20, r8
    3c0c:	59 09       	sbc	r21, r9
    3c0e:	6a 09       	sbc	r22, r10
    3c10:	7b 09       	sbc	r23, r11
    3c12:	c8 1a       	sub	r12, r24
    3c14:	d9 0a       	sbc	r13, r25
    3c16:	ea 0a       	sbc	r14, r26
    3c18:	fb 0a       	sbc	r15, r27
    3c1a:	81 e0       	ldi	r24, 0x01	; 1
    3c1c:	90 e0       	ldi	r25, 0x00	; 0
    3c1e:	a0 e0       	ldi	r26, 0x00	; 0
    3c20:	b0 e0       	ldi	r27, 0x00	; 0
    3c22:	89 8c       	ldd	r8, Y+25	; 0x19
    3c24:	9a 8c       	ldd	r9, Y+26	; 0x1a
    3c26:	ab 8c       	ldd	r10, Y+27	; 0x1b
    3c28:	bc 8c       	ldd	r11, Y+28	; 0x1c
    3c2a:	84 16       	cp	r8, r20
    3c2c:	95 06       	cpc	r9, r21
    3c2e:	a6 06       	cpc	r10, r22
    3c30:	b7 06       	cpc	r11, r23
    3c32:	18 f0       	brcs	.+6      	; 0x3c3a <__umoddi3+0x678>
    3c34:	80 e0       	ldi	r24, 0x00	; 0
    3c36:	90 e0       	ldi	r25, 0x00	; 0
    3c38:	dc 01       	movw	r26, r24
    3c3a:	c8 1a       	sub	r12, r24
    3c3c:	d9 0a       	sbc	r13, r25
    3c3e:	ea 0a       	sbc	r14, r26
    3c40:	fb 0a       	sbc	r15, r27
    3c42:	49 8f       	std	Y+25, r20	; 0x19
    3c44:	5a 8f       	std	Y+26, r21	; 0x1a
    3c46:	6b 8f       	std	Y+27, r22	; 0x1b
    3c48:	7c 8f       	std	Y+28, r23	; 0x1c
    3c4a:	09 8d       	ldd	r16, Y+25	; 0x19
    3c4c:	1a 8d       	ldd	r17, Y+26	; 0x1a
    3c4e:	2b 8d       	ldd	r18, Y+27	; 0x1b
    3c50:	3c 8d       	ldd	r19, Y+28	; 0x1c
    3c52:	09 83       	std	Y+1, r16	; 0x01
    3c54:	1a 83       	std	Y+2, r17	; 0x02
    3c56:	2b 83       	std	Y+3, r18	; 0x03
    3c58:	3c 83       	std	Y+4, r19	; 0x04
    3c5a:	cd 82       	std	Y+5, r12	; 0x05
    3c5c:	de 82       	std	Y+6, r13	; 0x06
    3c5e:	ef 82       	std	Y+7, r14	; 0x07
    3c60:	f8 86       	std	Y+8, r15	; 0x08
    3c62:	29 8d       	ldd	r18, Y+25	; 0x19
    3c64:	41 c2       	rjmp	.+1154   	; 0x40e8 <__umoddi3+0xb26>
    3c66:	34 2e       	mov	r3, r20
    3c68:	ac 01       	movw	r20, r24
    3c6a:	bd 01       	movw	r22, r26
    3c6c:	03 2c       	mov	r0, r3
    3c6e:	04 c0       	rjmp	.+8      	; 0x3c78 <__umoddi3+0x6b6>
    3c70:	44 0f       	add	r20, r20
    3c72:	55 1f       	adc	r21, r21
    3c74:	66 1f       	adc	r22, r22
    3c76:	77 1f       	adc	r23, r23
    3c78:	0a 94       	dec	r0
    3c7a:	d2 f7       	brpl	.-12     	; 0x3c70 <__umoddi3+0x6ae>
    3c7c:	20 2e       	mov	r2, r16
    3c7e:	d5 01       	movw	r26, r10
    3c80:	c4 01       	movw	r24, r8
    3c82:	04 c0       	rjmp	.+8      	; 0x3c8c <__umoddi3+0x6ca>
    3c84:	b6 95       	lsr	r27
    3c86:	a7 95       	ror	r26
    3c88:	97 95       	ror	r25
    3c8a:	87 95       	ror	r24
    3c8c:	0a 95       	dec	r16
    3c8e:	d2 f7       	brpl	.-12     	; 0x3c84 <__umoddi3+0x6c2>
    3c90:	48 2b       	or	r20, r24
    3c92:	59 2b       	or	r21, r25
    3c94:	6a 2b       	or	r22, r26
    3c96:	7b 2b       	or	r23, r27
    3c98:	4d 8f       	std	Y+29, r20	; 0x1d
    3c9a:	5e 8f       	std	Y+30, r21	; 0x1e
    3c9c:	6f 8f       	std	Y+31, r22	; 0x1f
    3c9e:	78 a3       	lds	r23, 0x58
    3ca0:	95 01       	movw	r18, r10
    3ca2:	84 01       	movw	r16, r8
    3ca4:	03 2c       	mov	r0, r3
    3ca6:	04 c0       	rjmp	.+8      	; 0x3cb0 <__umoddi3+0x6ee>
    3ca8:	00 0f       	add	r16, r16
    3caa:	11 1f       	adc	r17, r17
    3cac:	22 1f       	adc	r18, r18
    3cae:	33 1f       	adc	r19, r19
    3cb0:	0a 94       	dec	r0
    3cb2:	d2 f7       	brpl	.-12     	; 0x3ca8 <__umoddi3+0x6e6>
    3cb4:	09 a7       	lds	r16, 0x79
    3cb6:	1a a7       	lds	r17, 0x7a
    3cb8:	2b a7       	lds	r18, 0x7b
    3cba:	3c a7       	lds	r19, 0x7c
    3cbc:	46 01       	movw	r8, r12
    3cbe:	57 01       	movw	r10, r14
    3cc0:	02 2c       	mov	r0, r2
    3cc2:	04 c0       	rjmp	.+8      	; 0x3ccc <__umoddi3+0x70a>
    3cc4:	b6 94       	lsr	r11
    3cc6:	a7 94       	ror	r10
    3cc8:	97 94       	ror	r9
    3cca:	87 94       	ror	r8
    3ccc:	0a 94       	dec	r0
    3cce:	d2 f7       	brpl	.-12     	; 0x3cc4 <__umoddi3+0x702>
    3cd0:	8d a2       	lds	r24, 0x9d
    3cd2:	9e a2       	lds	r25, 0x9e
    3cd4:	af a2       	lds	r26, 0x9f
    3cd6:	b8 a6       	lds	r27, 0xb8
    3cd8:	97 01       	movw	r18, r14
    3cda:	86 01       	movw	r16, r12
    3cdc:	03 2c       	mov	r0, r3
    3cde:	04 c0       	rjmp	.+8      	; 0x3ce8 <__umoddi3+0x726>
    3ce0:	00 0f       	add	r16, r16
    3ce2:	11 1f       	adc	r17, r17
    3ce4:	22 1f       	adc	r18, r18
    3ce6:	33 1f       	adc	r19, r19
    3ce8:	0a 94       	dec	r0
    3cea:	d2 f7       	brpl	.-12     	; 0x3ce0 <__umoddi3+0x71e>
    3cec:	89 8d       	ldd	r24, Y+25	; 0x19
    3cee:	9a 8d       	ldd	r25, Y+26	; 0x1a
    3cf0:	ab 8d       	ldd	r26, Y+27	; 0x1b
    3cf2:	bc 8d       	ldd	r27, Y+28	; 0x1c
    3cf4:	02 2c       	mov	r0, r2
    3cf6:	04 c0       	rjmp	.+8      	; 0x3d00 <__umoddi3+0x73e>
    3cf8:	b6 95       	lsr	r27
    3cfa:	a7 95       	ror	r26
    3cfc:	97 95       	ror	r25
    3cfe:	87 95       	ror	r24
    3d00:	0a 94       	dec	r0
    3d02:	d2 f7       	brpl	.-12     	; 0x3cf8 <__umoddi3+0x736>
    3d04:	08 2b       	or	r16, r24
    3d06:	19 2b       	or	r17, r25
    3d08:	2a 2b       	or	r18, r26
    3d0a:	3b 2b       	or	r19, r27
    3d0c:	09 a3       	lds	r16, 0x59
    3d0e:	1a a3       	lds	r17, 0x5a
    3d10:	2b a3       	lds	r18, 0x5b
    3d12:	3c a3       	lds	r19, 0x5c
    3d14:	89 8c       	ldd	r8, Y+25	; 0x19
    3d16:	9a 8c       	ldd	r9, Y+26	; 0x1a
    3d18:	ab 8c       	ldd	r10, Y+27	; 0x1b
    3d1a:	bc 8c       	ldd	r11, Y+28	; 0x1c
    3d1c:	03 2c       	mov	r0, r3
    3d1e:	04 c0       	rjmp	.+8      	; 0x3d28 <__umoddi3+0x766>
    3d20:	88 0c       	add	r8, r8
    3d22:	99 1c       	adc	r9, r9
    3d24:	aa 1c       	adc	r10, r10
    3d26:	bb 1c       	adc	r11, r11
    3d28:	0a 94       	dec	r0
    3d2a:	d2 f7       	brpl	.-12     	; 0x3d20 <__umoddi3+0x75e>
    3d2c:	89 8e       	std	Y+25, r8	; 0x19
    3d2e:	9a 8e       	std	Y+26, r9	; 0x1a
    3d30:	ab 8e       	std	Y+27, r10	; 0x1b
    3d32:	bc 8e       	std	Y+28, r11	; 0x1c
    3d34:	4b 01       	movw	r8, r22
    3d36:	aa 24       	eor	r10, r10
    3d38:	bb 24       	eor	r11, r11
    3d3a:	60 70       	andi	r22, 0x00	; 0
    3d3c:	70 70       	andi	r23, 0x00	; 0
    3d3e:	4d a7       	lds	r20, 0x7d
    3d40:	5e a7       	lds	r21, 0x7e
    3d42:	6f a7       	lds	r22, 0x7f
    3d44:	78 ab       	sts	0x58, r23
    3d46:	6d a1       	lds	r22, 0x4d
    3d48:	7e a1       	lds	r23, 0x4e
    3d4a:	8f a1       	lds	r24, 0x4f
    3d4c:	98 a5       	lds	r25, 0x68
    3d4e:	a5 01       	movw	r20, r10
    3d50:	94 01       	movw	r18, r8
    3d52:	0e 94 9e 20 	call	0x413c	; 0x413c <__udivmodsi4>
    3d56:	29 01       	movw	r4, r18
    3d58:	3a 01       	movw	r6, r20
    3d5a:	6b 01       	movw	r12, r22
    3d5c:	7c 01       	movw	r14, r24
    3d5e:	6d a1       	lds	r22, 0x4d
    3d60:	7e a1       	lds	r23, 0x4e
    3d62:	8f a1       	lds	r24, 0x4f
    3d64:	98 a5       	lds	r25, 0x68
    3d66:	a5 01       	movw	r20, r10
    3d68:	94 01       	movw	r18, r8
    3d6a:	0e 94 9e 20 	call	0x413c	; 0x413c <__udivmodsi4>
    3d6e:	c3 01       	movw	r24, r6
    3d70:	b2 01       	movw	r22, r4
    3d72:	2d a5       	lds	r18, 0x6d
    3d74:	3e a5       	lds	r19, 0x6e
    3d76:	4f a5       	lds	r20, 0x6f
    3d78:	58 a9       	sts	0x48, r21
    3d7a:	0e 94 7f 20 	call	0x40fe	; 0x40fe <__mulsi3>
    3d7e:	dc 01       	movw	r26, r24
    3d80:	cb 01       	movw	r24, r22
    3d82:	76 01       	movw	r14, r12
    3d84:	dd 24       	eor	r13, r13
    3d86:	cc 24       	eor	r12, r12
    3d88:	09 a1       	lds	r16, 0x49
    3d8a:	1a a1       	lds	r17, 0x4a
    3d8c:	2b a1       	lds	r18, 0x4b
    3d8e:	3c a1       	lds	r19, 0x4c
    3d90:	a9 01       	movw	r20, r18
    3d92:	66 27       	eor	r22, r22
    3d94:	77 27       	eor	r23, r23
    3d96:	c4 2a       	or	r12, r20
    3d98:	d5 2a       	or	r13, r21
    3d9a:	e6 2a       	or	r14, r22
    3d9c:	f7 2a       	or	r15, r23
    3d9e:	c8 16       	cp	r12, r24
    3da0:	d9 06       	cpc	r13, r25
    3da2:	ea 06       	cpc	r14, r26
    3da4:	fb 06       	cpc	r15, r27
    3da6:	78 f5       	brcc	.+94     	; 0x3e06 <__umoddi3+0x844>
    3da8:	93 01       	movw	r18, r6
    3daa:	82 01       	movw	r16, r4
    3dac:	01 50       	subi	r16, 0x01	; 1
    3dae:	10 40       	sbci	r17, 0x00	; 0
    3db0:	20 40       	sbci	r18, 0x00	; 0
    3db2:	30 40       	sbci	r19, 0x00	; 0
    3db4:	0d a3       	lds	r16, 0x5d
    3db6:	1e a3       	lds	r17, 0x5e
    3db8:	2f a3       	lds	r18, 0x5f
    3dba:	38 a7       	lds	r19, 0x78
    3dbc:	0d 8d       	ldd	r16, Y+29	; 0x1d
    3dbe:	1e 8d       	ldd	r17, Y+30	; 0x1e
    3dc0:	2f 8d       	ldd	r18, Y+31	; 0x1f
    3dc2:	38 a1       	lds	r19, 0x48
    3dc4:	c0 0e       	add	r12, r16
    3dc6:	d1 1e       	adc	r13, r17
    3dc8:	e2 1e       	adc	r14, r18
    3dca:	f3 1e       	adc	r15, r19
    3dcc:	c0 16       	cp	r12, r16
    3dce:	d1 06       	cpc	r13, r17
    3dd0:	e2 06       	cpc	r14, r18
    3dd2:	f3 06       	cpc	r15, r19
    3dd4:	e0 f0       	brcs	.+56     	; 0x3e0e <__umoddi3+0x84c>
    3dd6:	c8 16       	cp	r12, r24
    3dd8:	d9 06       	cpc	r13, r25
    3dda:	ea 06       	cpc	r14, r26
    3ddc:	fb 06       	cpc	r15, r27
    3dde:	b8 f4       	brcc	.+46     	; 0x3e0e <__umoddi3+0x84c>
    3de0:	93 01       	movw	r18, r6
    3de2:	82 01       	movw	r16, r4
    3de4:	02 50       	subi	r16, 0x02	; 2
    3de6:	10 40       	sbci	r17, 0x00	; 0
    3de8:	20 40       	sbci	r18, 0x00	; 0
    3dea:	30 40       	sbci	r19, 0x00	; 0
    3dec:	0d a3       	lds	r16, 0x5d
    3dee:	1e a3       	lds	r17, 0x5e
    3df0:	2f a3       	lds	r18, 0x5f
    3df2:	38 a7       	lds	r19, 0x78
    3df4:	0d 8d       	ldd	r16, Y+29	; 0x1d
    3df6:	1e 8d       	ldd	r17, Y+30	; 0x1e
    3df8:	2f 8d       	ldd	r18, Y+31	; 0x1f
    3dfa:	38 a1       	lds	r19, 0x48
    3dfc:	c0 0e       	add	r12, r16
    3dfe:	d1 1e       	adc	r13, r17
    3e00:	e2 1e       	adc	r14, r18
    3e02:	f3 1e       	adc	r15, r19
    3e04:	04 c0       	rjmp	.+8      	; 0x3e0e <__umoddi3+0x84c>
    3e06:	4d a2       	lds	r20, 0x9d
    3e08:	5e a2       	lds	r21, 0x9e
    3e0a:	6f a2       	lds	r22, 0x9f
    3e0c:	78 a6       	lds	r23, 0xb8
    3e0e:	c8 1a       	sub	r12, r24
    3e10:	d9 0a       	sbc	r13, r25
    3e12:	ea 0a       	sbc	r14, r26
    3e14:	fb 0a       	sbc	r15, r27
    3e16:	c7 01       	movw	r24, r14
    3e18:	b6 01       	movw	r22, r12
    3e1a:	a5 01       	movw	r20, r10
    3e1c:	94 01       	movw	r18, r8
    3e1e:	0e 94 9e 20 	call	0x413c	; 0x413c <__udivmodsi4>
    3e22:	29 01       	movw	r4, r18
    3e24:	3a 01       	movw	r6, r20
    3e26:	69 ab       	sts	0x59, r22
    3e28:	7a ab       	sts	0x5a, r23
    3e2a:	8b ab       	sts	0x5b, r24
    3e2c:	9c ab       	sts	0x5c, r25
    3e2e:	c7 01       	movw	r24, r14
    3e30:	b6 01       	movw	r22, r12
    3e32:	a5 01       	movw	r20, r10
    3e34:	94 01       	movw	r18, r8
    3e36:	0e 94 9e 20 	call	0x413c	; 0x413c <__udivmodsi4>
    3e3a:	c3 01       	movw	r24, r6
    3e3c:	b2 01       	movw	r22, r4
    3e3e:	2d a5       	lds	r18, 0x6d
    3e40:	3e a5       	lds	r19, 0x6e
    3e42:	4f a5       	lds	r20, 0x6f
    3e44:	58 a9       	sts	0x48, r21
    3e46:	0e 94 7f 20 	call	0x40fe	; 0x40fe <__mulsi3>
    3e4a:	8b 01       	movw	r16, r22
    3e4c:	9c 01       	movw	r18, r24
    3e4e:	89 a8       	sts	0x89, r24
    3e50:	9a a8       	sts	0x8a, r25
    3e52:	ab a8       	sts	0x8b, r26
    3e54:	bc a8       	sts	0x8c, r27
    3e56:	b4 01       	movw	r22, r8
    3e58:	55 27       	eor	r21, r21
    3e5a:	44 27       	eor	r20, r20
    3e5c:	89 a1       	lds	r24, 0x49
    3e5e:	9a a1       	lds	r25, 0x4a
    3e60:	ab a1       	lds	r26, 0x4b
    3e62:	bc a1       	lds	r27, 0x4c
    3e64:	a0 70       	andi	r26, 0x00	; 0
    3e66:	b0 70       	andi	r27, 0x00	; 0
    3e68:	48 2b       	or	r20, r24
    3e6a:	59 2b       	or	r21, r25
    3e6c:	6a 2b       	or	r22, r26
    3e6e:	7b 2b       	or	r23, r27
    3e70:	d3 01       	movw	r26, r6
    3e72:	c2 01       	movw	r24, r4
    3e74:	40 17       	cp	r20, r16
    3e76:	51 07       	cpc	r21, r17
    3e78:	62 07       	cpc	r22, r18
    3e7a:	73 07       	cpc	r23, r19
    3e7c:	f0 f4       	brcc	.+60     	; 0x3eba <__umoddi3+0x8f8>
    3e7e:	01 97       	sbiw	r24, 0x01	; 1
    3e80:	a1 09       	sbc	r26, r1
    3e82:	b1 09       	sbc	r27, r1
    3e84:	ad 8c       	ldd	r10, Y+29	; 0x1d
    3e86:	be 8c       	ldd	r11, Y+30	; 0x1e
    3e88:	cf 8c       	ldd	r12, Y+31	; 0x1f
    3e8a:	d8 a0       	lds	r29, 0x88
    3e8c:	4a 0d       	add	r20, r10
    3e8e:	5b 1d       	adc	r21, r11
    3e90:	6c 1d       	adc	r22, r12
    3e92:	7d 1d       	adc	r23, r13
    3e94:	4a 15       	cp	r20, r10
    3e96:	5b 05       	cpc	r21, r11
    3e98:	6c 05       	cpc	r22, r12
    3e9a:	7d 05       	cpc	r23, r13
    3e9c:	70 f0       	brcs	.+28     	; 0x3eba <__umoddi3+0x8f8>
    3e9e:	40 17       	cp	r20, r16
    3ea0:	51 07       	cpc	r21, r17
    3ea2:	62 07       	cpc	r22, r18
    3ea4:	73 07       	cpc	r23, r19
    3ea6:	48 f4       	brcc	.+18     	; 0x3eba <__umoddi3+0x8f8>
    3ea8:	d3 01       	movw	r26, r6
    3eaa:	c2 01       	movw	r24, r4
    3eac:	02 97       	sbiw	r24, 0x02	; 2
    3eae:	a1 09       	sbc	r26, r1
    3eb0:	b1 09       	sbc	r27, r1
    3eb2:	4a 0d       	add	r20, r10
    3eb4:	5b 1d       	adc	r21, r11
    3eb6:	6c 1d       	adc	r22, r12
    3eb8:	7d 1d       	adc	r23, r13
    3eba:	6a 01       	movw	r12, r20
    3ebc:	7b 01       	movw	r14, r22
    3ebe:	c0 1a       	sub	r12, r16
    3ec0:	d1 0a       	sbc	r13, r17
    3ec2:	e2 0a       	sbc	r14, r18
    3ec4:	f3 0a       	sbc	r15, r19
    3ec6:	c9 a2       	lds	r28, 0x99
    3ec8:	da a2       	lds	r29, 0x9a
    3eca:	eb a2       	lds	r30, 0x9b
    3ecc:	fc a2       	lds	r31, 0x9c
    3ece:	ed a0       	lds	r30, 0x8d
    3ed0:	fe a0       	lds	r31, 0x8e
    3ed2:	0f a1       	lds	r16, 0x4f
    3ed4:	18 a5       	lds	r17, 0x68
    3ed6:	b7 01       	movw	r22, r14
    3ed8:	55 27       	eor	r21, r21
    3eda:	44 27       	eor	r20, r20
    3edc:	48 2b       	or	r20, r24
    3ede:	59 2b       	or	r21, r25
    3ee0:	6a 2b       	or	r22, r26
    3ee2:	7b 2b       	or	r23, r27
    3ee4:	ff ef       	ldi	r31, 0xFF	; 255
    3ee6:	cf 2e       	mov	r12, r31
    3ee8:	ff ef       	ldi	r31, 0xFF	; 255
    3eea:	df 2e       	mov	r13, r31
    3eec:	e1 2c       	mov	r14, r1
    3eee:	f1 2c       	mov	r15, r1
    3ef0:	c4 22       	and	r12, r20
    3ef2:	d5 22       	and	r13, r21
    3ef4:	e6 22       	and	r14, r22
    3ef6:	f7 22       	and	r15, r23
    3ef8:	2b 01       	movw	r4, r22
    3efa:	66 24       	eor	r6, r6
    3efc:	77 24       	eor	r7, r7
    3efe:	89 a4       	lds	r24, 0xa9
    3f00:	9a a4       	lds	r25, 0xaa
    3f02:	ab a4       	lds	r26, 0xab
    3f04:	bc a4       	lds	r27, 0xac
    3f06:	0f ef       	ldi	r16, 0xFF	; 255
    3f08:	1f ef       	ldi	r17, 0xFF	; 255
    3f0a:	20 e0       	ldi	r18, 0x00	; 0
    3f0c:	30 e0       	ldi	r19, 0x00	; 0
    3f0e:	80 22       	and	r8, r16
    3f10:	91 22       	and	r9, r17
    3f12:	a2 22       	and	r10, r18
    3f14:	b3 22       	and	r11, r19
    3f16:	29 a5       	lds	r18, 0x69
    3f18:	3a a5       	lds	r19, 0x6a
    3f1a:	4b a5       	lds	r20, 0x6b
    3f1c:	5c a5       	lds	r21, 0x6c
    3f1e:	8a 01       	movw	r16, r20
    3f20:	22 27       	eor	r18, r18
    3f22:	33 27       	eor	r19, r19
    3f24:	0d a3       	lds	r16, 0x5d
    3f26:	1e a3       	lds	r17, 0x5e
    3f28:	2f a3       	lds	r18, 0x5f
    3f2a:	38 a7       	lds	r19, 0x78
    3f2c:	c7 01       	movw	r24, r14
    3f2e:	b6 01       	movw	r22, r12
    3f30:	a5 01       	movw	r20, r10
    3f32:	94 01       	movw	r18, r8
    3f34:	0e 94 7f 20 	call	0x40fe	; 0x40fe <__mulsi3>
    3f38:	6d a7       	lds	r22, 0x7d
    3f3a:	7e a7       	lds	r23, 0x7e
    3f3c:	8f a7       	lds	r24, 0x7f
    3f3e:	98 ab       	sts	0x58, r25
    3f40:	c7 01       	movw	r24, r14
    3f42:	b6 01       	movw	r22, r12
    3f44:	2d a1       	lds	r18, 0x4d
    3f46:	3e a1       	lds	r19, 0x4e
    3f48:	4f a1       	lds	r20, 0x4f
    3f4a:	58 a5       	lds	r21, 0x68
    3f4c:	0e 94 7f 20 	call	0x40fe	; 0x40fe <__mulsi3>
    3f50:	6b 01       	movw	r12, r22
    3f52:	7c 01       	movw	r14, r24
    3f54:	c3 01       	movw	r24, r6
    3f56:	b2 01       	movw	r22, r4
    3f58:	a5 01       	movw	r20, r10
    3f5a:	94 01       	movw	r18, r8
    3f5c:	0e 94 7f 20 	call	0x40fe	; 0x40fe <__mulsi3>
    3f60:	4b 01       	movw	r8, r22
    3f62:	5c 01       	movw	r10, r24
    3f64:	c3 01       	movw	r24, r6
    3f66:	b2 01       	movw	r22, r4
    3f68:	2d a1       	lds	r18, 0x4d
    3f6a:	3e a1       	lds	r19, 0x4e
    3f6c:	4f a1       	lds	r20, 0x4f
    3f6e:	58 a5       	lds	r21, 0x68
    3f70:	0e 94 7f 20 	call	0x40fe	; 0x40fe <__mulsi3>
    3f74:	ab 01       	movw	r20, r22
    3f76:	bc 01       	movw	r22, r24
    3f78:	c8 0c       	add	r12, r8
    3f7a:	d9 1c       	adc	r13, r9
    3f7c:	ea 1c       	adc	r14, r10
    3f7e:	fb 1c       	adc	r15, r11
    3f80:	0d a5       	lds	r16, 0x6d
    3f82:	1e a5       	lds	r17, 0x6e
    3f84:	2f a5       	lds	r18, 0x6f
    3f86:	38 a9       	sts	0x48, r19
    3f88:	c9 01       	movw	r24, r18
    3f8a:	aa 27       	eor	r26, r26
    3f8c:	bb 27       	eor	r27, r27
    3f8e:	c8 0e       	add	r12, r24
    3f90:	d9 1e       	adc	r13, r25
    3f92:	ea 1e       	adc	r14, r26
    3f94:	fb 1e       	adc	r15, r27
    3f96:	c8 14       	cp	r12, r8
    3f98:	d9 04       	cpc	r13, r9
    3f9a:	ea 04       	cpc	r14, r10
    3f9c:	fb 04       	cpc	r15, r11
    3f9e:	20 f4       	brcc	.+8      	; 0x3fa8 <__umoddi3+0x9e6>
    3fa0:	40 50       	subi	r20, 0x00	; 0
    3fa2:	50 40       	sbci	r21, 0x00	; 0
    3fa4:	6f 4f       	sbci	r22, 0xFF	; 255
    3fa6:	7f 4f       	sbci	r23, 0xFF	; 255
    3fa8:	c7 01       	movw	r24, r14
    3faa:	aa 27       	eor	r26, r26
    3fac:	bb 27       	eor	r27, r27
    3fae:	84 0f       	add	r24, r20
    3fb0:	95 1f       	adc	r25, r21
    3fb2:	a6 1f       	adc	r26, r22
    3fb4:	b7 1f       	adc	r27, r23
    3fb6:	76 01       	movw	r14, r12
    3fb8:	dd 24       	eor	r13, r13
    3fba:	cc 24       	eor	r12, r12
    3fbc:	4d a5       	lds	r20, 0x6d
    3fbe:	5e a5       	lds	r21, 0x6e
    3fc0:	6f a5       	lds	r22, 0x6f
    3fc2:	78 a9       	sts	0x48, r23
    3fc4:	60 70       	andi	r22, 0x00	; 0
    3fc6:	70 70       	andi	r23, 0x00	; 0
    3fc8:	c4 0e       	add	r12, r20
    3fca:	d5 1e       	adc	r13, r21
    3fcc:	e6 1e       	adc	r14, r22
    3fce:	f7 1e       	adc	r15, r23
    3fd0:	89 a0       	lds	r24, 0x89
    3fd2:	9a a0       	lds	r25, 0x8a
    3fd4:	ab a0       	lds	r26, 0x8b
    3fd6:	bc a0       	lds	r27, 0x8c
    3fd8:	88 16       	cp	r8, r24
    3fda:	99 06       	cpc	r9, r25
    3fdc:	aa 06       	cpc	r10, r26
    3fde:	bb 06       	cpc	r11, r27
    3fe0:	70 f0       	brcs	.+28     	; 0x3ffe <__umoddi3+0xa3c>
    3fe2:	88 15       	cp	r24, r8
    3fe4:	99 05       	cpc	r25, r9
    3fe6:	aa 05       	cpc	r26, r10
    3fe8:	bb 05       	cpc	r27, r11
    3fea:	99 f5       	brne	.+102    	; 0x4052 <__umoddi3+0xa90>
    3fec:	09 8d       	ldd	r16, Y+25	; 0x19
    3fee:	1a 8d       	ldd	r17, Y+26	; 0x1a
    3ff0:	2b 8d       	ldd	r18, Y+27	; 0x1b
    3ff2:	3c 8d       	ldd	r19, Y+28	; 0x1c
    3ff4:	0c 15       	cp	r16, r12
    3ff6:	1d 05       	cpc	r17, r13
    3ff8:	2e 05       	cpc	r18, r14
    3ffa:	3f 05       	cpc	r19, r15
    3ffc:	50 f5       	brcc	.+84     	; 0x4052 <__umoddi3+0xa90>
    3ffe:	b7 01       	movw	r22, r14
    4000:	a6 01       	movw	r20, r12
    4002:	89 a4       	lds	r24, 0xa9
    4004:	9a a4       	lds	r25, 0xaa
    4006:	ab a4       	lds	r26, 0xab
    4008:	bc a4       	lds	r27, 0xac
    400a:	48 19       	sub	r20, r8
    400c:	59 09       	sbc	r21, r9
    400e:	6a 09       	sbc	r22, r10
    4010:	7b 09       	sbc	r23, r11
    4012:	8c 01       	movw	r16, r24
    4014:	9d 01       	movw	r18, r26
    4016:	8d 8c       	ldd	r8, Y+29	; 0x1d
    4018:	9e 8c       	ldd	r9, Y+30	; 0x1e
    401a:	af 8c       	ldd	r10, Y+31	; 0x1f
    401c:	b8 a0       	lds	r27, 0x88
    401e:	08 19       	sub	r16, r8
    4020:	19 09       	sbc	r17, r9
    4022:	2a 09       	sbc	r18, r10
    4024:	3b 09       	sbc	r19, r11
    4026:	81 e0       	ldi	r24, 0x01	; 1
    4028:	90 e0       	ldi	r25, 0x00	; 0
    402a:	a0 e0       	ldi	r26, 0x00	; 0
    402c:	b0 e0       	ldi	r27, 0x00	; 0
    402e:	c4 16       	cp	r12, r20
    4030:	d5 06       	cpc	r13, r21
    4032:	e6 06       	cpc	r14, r22
    4034:	f7 06       	cpc	r15, r23
    4036:	18 f0       	brcs	.+6      	; 0x403e <__umoddi3+0xa7c>
    4038:	80 e0       	ldi	r24, 0x00	; 0
    403a:	90 e0       	ldi	r25, 0x00	; 0
    403c:	dc 01       	movw	r26, r24
    403e:	58 01       	movw	r10, r16
    4040:	69 01       	movw	r12, r18
    4042:	a8 1a       	sub	r10, r24
    4044:	b9 0a       	sbc	r11, r25
    4046:	ca 0a       	sbc	r12, r26
    4048:	db 0a       	sbc	r13, r27
    404a:	d6 01       	movw	r26, r12
    404c:	c5 01       	movw	r24, r10
    404e:	6a 01       	movw	r12, r20
    4050:	7b 01       	movw	r14, r22
    4052:	89 8c       	ldd	r8, Y+25	; 0x19
    4054:	9a 8c       	ldd	r9, Y+26	; 0x1a
    4056:	ab 8c       	ldd	r10, Y+27	; 0x1b
    4058:	bc 8c       	ldd	r11, Y+28	; 0x1c
    405a:	8c 18       	sub	r8, r12
    405c:	9d 08       	sbc	r9, r13
    405e:	ae 08       	sbc	r10, r14
    4060:	bf 08       	sbc	r11, r15
    4062:	49 a1       	lds	r20, 0x49
    4064:	5a a1       	lds	r21, 0x4a
    4066:	6b a1       	lds	r22, 0x4b
    4068:	7c a1       	lds	r23, 0x4c
    406a:	48 1b       	sub	r20, r24
    406c:	59 0b       	sbc	r21, r25
    406e:	6a 0b       	sbc	r22, r26
    4070:	7b 0b       	sbc	r23, r27
    4072:	81 e0       	ldi	r24, 0x01	; 1
    4074:	90 e0       	ldi	r25, 0x00	; 0
    4076:	a0 e0       	ldi	r26, 0x00	; 0
    4078:	b0 e0       	ldi	r27, 0x00	; 0
    407a:	c9 8c       	ldd	r12, Y+25	; 0x19
    407c:	da 8c       	ldd	r13, Y+26	; 0x1a
    407e:	eb 8c       	ldd	r14, Y+27	; 0x1b
    4080:	fc 8c       	ldd	r15, Y+28	; 0x1c
    4082:	c8 14       	cp	r12, r8
    4084:	d9 04       	cpc	r13, r9
    4086:	ea 04       	cpc	r14, r10
    4088:	fb 04       	cpc	r15, r11
    408a:	18 f0       	brcs	.+6      	; 0x4092 <__umoddi3+0xad0>
    408c:	80 e0       	ldi	r24, 0x00	; 0
    408e:	90 e0       	ldi	r25, 0x00	; 0
    4090:	dc 01       	movw	r26, r24
    4092:	48 1b       	sub	r20, r24
    4094:	59 0b       	sbc	r21, r25
    4096:	6a 0b       	sbc	r22, r26
    4098:	7b 0b       	sbc	r23, r27
    409a:	8a 01       	movw	r16, r20
    409c:	9b 01       	movw	r18, r22
    409e:	04 c0       	rjmp	.+8      	; 0x40a8 <__umoddi3+0xae6>
    40a0:	00 0f       	add	r16, r16
    40a2:	11 1f       	adc	r17, r17
    40a4:	22 1f       	adc	r18, r18
    40a6:	33 1f       	adc	r19, r19
    40a8:	2a 94       	dec	r2
    40aa:	d2 f7       	brpl	.-12     	; 0x40a0 <__umoddi3+0xade>
    40ac:	03 2c       	mov	r0, r3
    40ae:	04 c0       	rjmp	.+8      	; 0x40b8 <__umoddi3+0xaf6>
    40b0:	b6 94       	lsr	r11
    40b2:	a7 94       	ror	r10
    40b4:	97 94       	ror	r9
    40b6:	87 94       	ror	r8
    40b8:	0a 94       	dec	r0
    40ba:	d2 f7       	brpl	.-12     	; 0x40b0 <__umoddi3+0xaee>
    40bc:	08 29       	or	r16, r8
    40be:	19 29       	or	r17, r9
    40c0:	2a 29       	or	r18, r10
    40c2:	3b 29       	or	r19, r11
    40c4:	09 83       	std	Y+1, r16	; 0x01
    40c6:	1a 83       	std	Y+2, r17	; 0x02
    40c8:	2b 83       	std	Y+3, r18	; 0x03
    40ca:	3c 83       	std	Y+4, r19	; 0x04
    40cc:	6a 01       	movw	r12, r20
    40ce:	7b 01       	movw	r14, r22
    40d0:	04 c0       	rjmp	.+8      	; 0x40da <__umoddi3+0xb18>
    40d2:	f6 94       	lsr	r15
    40d4:	e7 94       	ror	r14
    40d6:	d7 94       	ror	r13
    40d8:	c7 94       	ror	r12
    40da:	3a 94       	dec	r3
    40dc:	d2 f7       	brpl	.-12     	; 0x40d2 <__umoddi3+0xb10>
    40de:	cd 82       	std	Y+5, r12	; 0x05
    40e0:	de 82       	std	Y+6, r13	; 0x06
    40e2:	ef 82       	std	Y+7, r14	; 0x07
    40e4:	f8 86       	std	Y+8, r15	; 0x08
    40e6:	20 2f       	mov	r18, r16
    40e8:	3a 81       	ldd	r19, Y+2	; 0x02
    40ea:	4b 81       	ldd	r20, Y+3	; 0x03
    40ec:	5c 81       	ldd	r21, Y+4	; 0x04
    40ee:	6c 2d       	mov	r22, r12
    40f0:	7e 81       	ldd	r23, Y+6	; 0x06
    40f2:	8f 81       	ldd	r24, Y+7	; 0x07
    40f4:	98 85       	ldd	r25, Y+8	; 0x08
    40f6:	e4 96       	adiw	r28, 0x34	; 52
    40f8:	e2 e1       	ldi	r30, 0x12	; 18
    40fa:	0c 94 dc 20 	jmp	0x41b8	; 0x41b8 <__epilogue_restores__>

000040fe <__mulsi3>:
    40fe:	62 9f       	mul	r22, r18
    4100:	d0 01       	movw	r26, r0
    4102:	73 9f       	mul	r23, r19
    4104:	f0 01       	movw	r30, r0
    4106:	82 9f       	mul	r24, r18
    4108:	e0 0d       	add	r30, r0
    410a:	f1 1d       	adc	r31, r1
    410c:	64 9f       	mul	r22, r20
    410e:	e0 0d       	add	r30, r0
    4110:	f1 1d       	adc	r31, r1
    4112:	92 9f       	mul	r25, r18
    4114:	f0 0d       	add	r31, r0
    4116:	83 9f       	mul	r24, r19
    4118:	f0 0d       	add	r31, r0
    411a:	74 9f       	mul	r23, r20
    411c:	f0 0d       	add	r31, r0
    411e:	65 9f       	mul	r22, r21
    4120:	f0 0d       	add	r31, r0
    4122:	99 27       	eor	r25, r25
    4124:	72 9f       	mul	r23, r18
    4126:	b0 0d       	add	r27, r0
    4128:	e1 1d       	adc	r30, r1
    412a:	f9 1f       	adc	r31, r25
    412c:	63 9f       	mul	r22, r19
    412e:	b0 0d       	add	r27, r0
    4130:	e1 1d       	adc	r30, r1
    4132:	f9 1f       	adc	r31, r25
    4134:	bd 01       	movw	r22, r26
    4136:	cf 01       	movw	r24, r30
    4138:	11 24       	eor	r1, r1
    413a:	08 95       	ret

0000413c <__udivmodsi4>:
    413c:	a1 e2       	ldi	r26, 0x21	; 33
    413e:	1a 2e       	mov	r1, r26
    4140:	aa 1b       	sub	r26, r26
    4142:	bb 1b       	sub	r27, r27
    4144:	fd 01       	movw	r30, r26
    4146:	0d c0       	rjmp	.+26     	; 0x4162 <__udivmodsi4_ep>

00004148 <__udivmodsi4_loop>:
    4148:	aa 1f       	adc	r26, r26
    414a:	bb 1f       	adc	r27, r27
    414c:	ee 1f       	adc	r30, r30
    414e:	ff 1f       	adc	r31, r31
    4150:	a2 17       	cp	r26, r18
    4152:	b3 07       	cpc	r27, r19
    4154:	e4 07       	cpc	r30, r20
    4156:	f5 07       	cpc	r31, r21
    4158:	20 f0       	brcs	.+8      	; 0x4162 <__udivmodsi4_ep>
    415a:	a2 1b       	sub	r26, r18
    415c:	b3 0b       	sbc	r27, r19
    415e:	e4 0b       	sbc	r30, r20
    4160:	f5 0b       	sbc	r31, r21

00004162 <__udivmodsi4_ep>:
    4162:	66 1f       	adc	r22, r22
    4164:	77 1f       	adc	r23, r23
    4166:	88 1f       	adc	r24, r24
    4168:	99 1f       	adc	r25, r25
    416a:	1a 94       	dec	r1
    416c:	69 f7       	brne	.-38     	; 0x4148 <__udivmodsi4_loop>
    416e:	60 95       	com	r22
    4170:	70 95       	com	r23
    4172:	80 95       	com	r24
    4174:	90 95       	com	r25
    4176:	9b 01       	movw	r18, r22
    4178:	ac 01       	movw	r20, r24
    417a:	bd 01       	movw	r22, r26
    417c:	cf 01       	movw	r24, r30
    417e:	08 95       	ret

00004180 <__prologue_saves__>:
    4180:	2f 92       	push	r2
    4182:	3f 92       	push	r3
    4184:	4f 92       	push	r4
    4186:	5f 92       	push	r5
    4188:	6f 92       	push	r6
    418a:	7f 92       	push	r7
    418c:	8f 92       	push	r8
    418e:	9f 92       	push	r9
    4190:	af 92       	push	r10
    4192:	bf 92       	push	r11
    4194:	cf 92       	push	r12
    4196:	df 92       	push	r13
    4198:	ef 92       	push	r14
    419a:	ff 92       	push	r15
    419c:	0f 93       	push	r16
    419e:	1f 93       	push	r17
    41a0:	cf 93       	push	r28
    41a2:	df 93       	push	r29
    41a4:	cd b7       	in	r28, 0x3d	; 61
    41a6:	de b7       	in	r29, 0x3e	; 62
    41a8:	ca 1b       	sub	r28, r26
    41aa:	db 0b       	sbc	r29, r27
    41ac:	0f b6       	in	r0, 0x3f	; 63
    41ae:	f8 94       	cli
    41b0:	de bf       	out	0x3e, r29	; 62
    41b2:	0f be       	out	0x3f, r0	; 63
    41b4:	cd bf       	out	0x3d, r28	; 61
    41b6:	09 94       	ijmp

000041b8 <__epilogue_restores__>:
    41b8:	2a 88       	ldd	r2, Y+18	; 0x12
    41ba:	39 88       	ldd	r3, Y+17	; 0x11
    41bc:	48 88       	ldd	r4, Y+16	; 0x10
    41be:	5f 84       	ldd	r5, Y+15	; 0x0f
    41c0:	6e 84       	ldd	r6, Y+14	; 0x0e
    41c2:	7d 84       	ldd	r7, Y+13	; 0x0d
    41c4:	8c 84       	ldd	r8, Y+12	; 0x0c
    41c6:	9b 84       	ldd	r9, Y+11	; 0x0b
    41c8:	aa 84       	ldd	r10, Y+10	; 0x0a
    41ca:	b9 84       	ldd	r11, Y+9	; 0x09
    41cc:	c8 84       	ldd	r12, Y+8	; 0x08
    41ce:	df 80       	ldd	r13, Y+7	; 0x07
    41d0:	ee 80       	ldd	r14, Y+6	; 0x06
    41d2:	fd 80       	ldd	r15, Y+5	; 0x05
    41d4:	0c 81       	ldd	r16, Y+4	; 0x04
    41d6:	1b 81       	ldd	r17, Y+3	; 0x03
    41d8:	aa 81       	ldd	r26, Y+2	; 0x02
    41da:	b9 81       	ldd	r27, Y+1	; 0x01
    41dc:	ce 0f       	add	r28, r30
    41de:	d1 1d       	adc	r29, r1
    41e0:	0f b6       	in	r0, 0x3f	; 63
    41e2:	f8 94       	cli
    41e4:	de bf       	out	0x3e, r29	; 62
    41e6:	0f be       	out	0x3f, r0	; 63
    41e8:	cd bf       	out	0x3d, r28	; 61
    41ea:	ed 01       	movw	r28, r26
    41ec:	08 95       	ret

000041ee <_exit>:
    41ee:	f8 94       	cli

000041f0 <__stop_program>:
    41f0:	ff cf       	rjmp	.-2      	; 0x41f0 <__stop_program>
